TI ARM Assembler PC v16.9.4 Sat Nov 25 18:51:50 2017

Tools Copyright (c) 1996-2017 Texas Instruments Incorporated
C:\Users\Kevin\AppData\Local\Temp\{DC18D6BA-4494-45CB-997B-AC060EFC778A} PAGE    1

       1                    ;******************************************************************************
       2                    ;* TI ARM C/C++ Codegen                                        PC v16.9.4.LTS *
       3                    ;* Date/Time created: Sat Nov 25 18:51:49 2017                                *
       4                    ;******************************************************************************
       5                            .compiler_opts --abi=eabi --arm_vmrs_si_workaround=off --code_state=16 --diag_wrap=off --embed
       6 00000000                   .thumb
       7                    
       8                    $C$DW$CU        .dwtag  DW_TAG_compile_unit
       9                            .dwattr $C$DW$CU, DW_AT_name("../Application/MAC/HighLevel/mac_security_pib.c")
      10                            .dwattr $C$DW$CU, DW_AT_producer("TI TI ARM C/C++ Codegen PC v16.9.4.LTS Copyright (c) 1996-20
      11                            .dwattr $C$DW$CU, DW_AT_TI_version(0x01)
      12                            .dwattr $C$DW$CU, DW_AT_comp_dir("C:\Users\Kevin\workspace_v7\collector_cc1310lp\collector_cc1
      13                    
      14                    $C$DW$1 .dwtag  DW_TAG_subprogram
      15                            .dwattr $C$DW$1, DW_AT_name("osal_memcpy")
      16                            .dwattr $C$DW$1, DW_AT_TI_symbol_name("osal_memcpy")
      17                            .dwattr $C$DW$1, DW_AT_type(*$C$DW$T$3)
      18                            .dwattr $C$DW$1, DW_AT_declaration
      19                            .dwattr $C$DW$1, DW_AT_external
      20                            .dwattr $C$DW$1, DW_AT_decl_file("C:/Users/Kevin/workspace_v7/collector_cc1310lp/Application/M
      21                            .dwattr $C$DW$1, DW_AT_decl_line(0x13f)
      22                            .dwattr $C$DW$1, DW_AT_decl_column(0x10)
      23                    $C$DW$2 .dwtag  DW_TAG_formal_parameter
      24                            .dwattr $C$DW$2, DW_AT_type(*$C$DW$T$3)
      25                    
      26                    $C$DW$3 .dwtag  DW_TAG_formal_parameter
      27                            .dwattr $C$DW$3, DW_AT_type(*$C$DW$T$500)
      28                    
      29                    $C$DW$4 .dwtag  DW_TAG_formal_parameter
      30                            .dwattr $C$DW$4, DW_AT_type(*$C$DW$T$11)
      31                    
      32                            .dwendtag $C$DW$1
      33                    
      34                    
      35                    $C$DW$5 .dwtag  DW_TAG_subprogram
      36                            .dwattr $C$DW$5, DW_AT_name("osal_memset")
      37                            .dwattr $C$DW$5, DW_AT_TI_symbol_name("osal_memset")
      38                            .dwattr $C$DW$5, DW_AT_type(*$C$DW$T$3)
      39                            .dwattr $C$DW$5, DW_AT_declaration
      40                            .dwattr $C$DW$5, DW_AT_external
      41                            .dwattr $C$DW$5, DW_AT_decl_file("C:/Users/Kevin/workspace_v7/collector_cc1310lp/Application/M
      42                            .dwattr $C$DW$5, DW_AT_decl_line(0x153)
      43                            .dwattr $C$DW$5, DW_AT_decl_column(0x10)
      44                    $C$DW$6 .dwtag  DW_TAG_formal_parameter
      45                            .dwattr $C$DW$6, DW_AT_type(*$C$DW$T$3)
      46                    
      47                    $C$DW$7 .dwtag  DW_TAG_formal_parameter
      48                            .dwattr $C$DW$7, DW_AT_type(*$C$DW$T$19)
      49                    
      50                    $C$DW$8 .dwtag  DW_TAG_formal_parameter
      51                            .dwattr $C$DW$8, DW_AT_type(*$C$DW$T$10)
      52                    
      53                            .dwendtag $C$DW$5
      54                    
      55                    $C$DW$9 .dwtag  DW_TAG_variable
TI ARM Assembler PC v16.9.4 Sat Nov 25 18:51:50 2017

Tools Copyright (c) 1996-2017 Texas Instruments Incorporated
C:\Users\Kevin\AppData\Local\Temp\{DC18D6BA-4494-45CB-997B-AC060EFC778A} PAGE    2

      56                            .dwattr $C$DW$9, DW_AT_name("ICall_enterCriticalSection")
      57                            .dwattr $C$DW$9, DW_AT_TI_symbol_name("ICall_enterCriticalSection")
      58                            .dwattr $C$DW$9, DW_AT_type(*$C$DW$T$482)
      59                            .dwattr $C$DW$9, DW_AT_declaration
      60                            .dwattr $C$DW$9, DW_AT_external
      61                            .dwattr $C$DW$9, DW_AT_decl_file("C:/ti/simplelink_cc13x0_sdk_1_50_00_08/source/ti/ti154stack/
      62                            .dwattr $C$DW$9, DW_AT_decl_line(0x384)
      63                            .dwattr $C$DW$9, DW_AT_decl_column(0x16)
      64                    
      65                    $C$DW$10        .dwtag  DW_TAG_variable
      66                            .dwattr $C$DW$10, DW_AT_name("ICall_leaveCriticalSection")
      67                            .dwattr $C$DW$10, DW_AT_TI_symbol_name("ICall_leaveCriticalSection")
      68                            .dwattr $C$DW$10, DW_AT_type(*$C$DW$T$485)
      69                            .dwattr $C$DW$10, DW_AT_declaration
      70                            .dwattr $C$DW$10, DW_AT_external
      71                            .dwattr $C$DW$10, DW_AT_decl_file("C:/ti/simplelink_cc13x0_sdk_1_50_00_08/source/ti/ti154stack
      72                            .dwattr $C$DW$10, DW_AT_decl_line(0x387)
      73                            .dwattr $C$DW$10, DW_AT_decl_column(0x16)
      74                    
      75 00000000                   .sect   ".const:macSecurityPibTbl"
      76                            .clink
      77                            .align  1
      78                            .elfsym macSecurityPibTbl,SYM_SIZE(44)
      79 00000000           macSecurityPibTbl:
      80 00000000 00000000          .bits   0,8                     ; macSecurityPibTbl[0].offset @ 0
      81 00000000 00000100          .bits   1,8                     ; macSecurityPibTbl[0].len @ 8
      82 00000000 00000100          .bits   0,8                     ; macSecurityPibTbl[0].min @ 16
      83 00000000 02000100          .bits   2,8                     ; macSecurityPibTbl[0].max @ 24
      84 00000004 00000001          .bits   1,8                     ; macSecurityPibTbl[1].offset @ 32
      85 00000004 00000101          .bits   1,8                     ; macSecurityPibTbl[1].len @ 40
      86 00000004 00000101          .bits   0,8                     ; macSecurityPibTbl[1].min @ 48
      87 00000004 32000101          .bits   50,8                    ; macSecurityPibTbl[1].max @ 56
      88 00000008 00000002          .bits   2,8                     ; macSecurityPibTbl[2].offset @ 64
      89 00000008 00000102          .bits   1,8                     ; macSecurityPibTbl[2].len @ 72
      90 00000008 00000102          .bits   0,8                     ; macSecurityPibTbl[2].min @ 80
      91 00000008 02000102          .bits   2,8                     ; macSecurityPibTbl[2].max @ 88
      92 0000000c 00000000          .bits   0,8                     ; macSecurityPibTbl[3].offset @ 96
      93 0000000c 00000000          .bits   0,8                     ; macSecurityPibTbl[3].len @ 104
      94 0000000c 00000000          .bits   0,8                     ; macSecurityPibTbl[3].min @ 112
      95 0000000c 00000000          .bits   0,8                     ; macSecurityPibTbl[3].max @ 120
      96 00000010 00000003          .bits   3,8                     ; macSecurityPibTbl[4].offset @ 128
      97 00000010 00000103          .bits   1,8                     ; macSecurityPibTbl[4].len @ 136
      98 00000010 00000103          .bits   0,8                     ; macSecurityPibTbl[4].min @ 144
      99 00000010 07000103          .bits   7,8                     ; macSecurityPibTbl[4].max @ 152
     100 00000014 00000004          .bits   4,8                     ; macSecurityPibTbl[5].offset @ 160
     101 00000014 00000104          .bits   1,8                     ; macSecurityPibTbl[5].len @ 168
     102 00000014 00000104          .bits   0,8                     ; macSecurityPibTbl[5].min @ 176
     103 00000014 03000104          .bits   3,8                     ; macSecurityPibTbl[5].max @ 184
     104 00000018 00000005          .bits   5,8                     ; macSecurityPibTbl[6].offset @ 192
     105 00000018 00000805          .bits   8,8                     ; macSecurityPibTbl[6].len @ 200
     106 00000018 00000805          .bits   0,8                     ; macSecurityPibTbl[6].min @ 208
     107 00000018 00000805          .bits   0,8                     ; macSecurityPibTbl[6].max @ 216
     108 0000001c 0000000D          .bits   13,8                    ; macSecurityPibTbl[7].offset @ 224
     109 0000001c 0000010D          .bits   1,8                     ; macSecurityPibTbl[7].len @ 232
     110 0000001c 0001010D          .bits   1,8                     ; macSecurityPibTbl[7].min @ 240
TI ARM Assembler PC v16.9.4 Sat Nov 25 18:51:50 2017

Tools Copyright (c) 1996-2017 Texas Instruments Incorporated
C:\Users\Kevin\AppData\Local\Temp\{DC18D6BA-4494-45CB-997B-AC060EFC778A} PAGE    3

     111 0000001c FF01010D          .bits   255,8                   ; macSecurityPibTbl[7].max @ 248
     112 00000020 0000000E          .bits   14,8                    ; macSecurityPibTbl[8].offset @ 256
     113 00000020 0000080E          .bits   8,8                     ; macSecurityPibTbl[8].len @ 264
     114 00000020 0000080E          .bits   0,8                     ; macSecurityPibTbl[8].min @ 272
     115 00000020 0000080E          .bits   0,8                     ; macSecurityPibTbl[8].max @ 280
     116 00000024 00000016          .bits   22,8                    ; macSecurityPibTbl[9].offset @ 288
     117 00000024 00000816          .bits   8,8                     ; macSecurityPibTbl[9].len @ 296
     118 00000024 00000816          .bits   0,8                     ; macSecurityPibTbl[9].min @ 304
     119 00000024 00000816          .bits   0,8                     ; macSecurityPibTbl[9].max @ 312
     120 00000028 00000020          .bits   32,8                    ; macSecurityPibTbl[10].offset @ 320
     121 00000028 00000220          .bits   2,8                     ; macSecurityPibTbl[10].len @ 328
     122 00000028 00000220          .bits   0,8                     ; macSecurityPibTbl[10].min @ 336
     123 00000028 00000220          .bits   0,8                     ; macSecurityPibTbl[10].max @ 344
     124                    
     125                    $C$DW$11        .dwtag  DW_TAG_variable
     126                            .dwattr $C$DW$11, DW_AT_name("macSecurityPibTbl")
     127                            .dwattr $C$DW$11, DW_AT_TI_symbol_name("macSecurityPibTbl")
     128                            .dwattr $C$DW$11, DW_AT_type(*$C$DW$T$566)
     129                            .dwattr $C$DW$11, DW_AT_location[DW_OP_addr macSecurityPibTbl]
     130                            .dwattr $C$DW$11, DW_AT_decl_file("../Application/MAC/HighLevel/mac_security_pib.c")
     131                            .dwattr $C$DW$11, DW_AT_decl_line(0x8e)
     132                            .dwattr $C$DW$11, DW_AT_decl_column(0x27)
     133                    
     134                            .global macSecurityPib
     135                            .common macSecurityPib,1660,4
     136                    $C$DW$12        .dwtag  DW_TAG_variable
     137                            .dwattr $C$DW$12, DW_AT_name("macSecurityPib")
     138                            .dwattr $C$DW$12, DW_AT_TI_symbol_name("macSecurityPib")
     139                            .dwattr $C$DW$12, DW_AT_location[DW_OP_addr macSecurityPib]
     140                            .dwattr $C$DW$12, DW_AT_type(*$C$DW$T$589)
     141                            .dwattr $C$DW$12, DW_AT_external
     142                            .dwattr $C$DW$12, DW_AT_decl_file("../Application/MAC/HighLevel/mac_security_pib.c")
     143                            .dwattr $C$DW$12, DW_AT_decl_line(0xa7)
     144                            .dwattr $C$DW$12, DW_AT_decl_column(0x12)
     145                    
     146                    ;       C:\ti\ccsv7\tools\compiler\ti-cgt-arm_16.9.4.LTS\bin\armopt.exe C:/Users/Kevin/workspace_v7/co
     147 00000000                   .sect   ".text:macSecurityPibReset"
     148                            .clink
     149                            .thumbfunc macSecurityPibReset
     150 00000000                   .thumb
     151                            .global macSecurityPibReset
     152                    
     153                    $C$DW$13        .dwtag  DW_TAG_subprogram
     154                            .dwattr $C$DW$13, DW_AT_name("macSecurityPibReset")
     155                            .dwattr $C$DW$13, DW_AT_low_pc(macSecurityPibReset)
     156                            .dwattr $C$DW$13, DW_AT_high_pc(0x00)
     157                            .dwattr $C$DW$13, DW_AT_TI_symbol_name("macSecurityPibReset")
     158                            .dwattr $C$DW$13, DW_AT_external
     159                            .dwattr $C$DW$13, DW_AT_TI_begin_file("../Application/MAC/HighLevel/mac_security_pib.c")
     160                            .dwattr $C$DW$13, DW_AT_TI_begin_line(0xd5)
     161                            .dwattr $C$DW$13, DW_AT_TI_begin_column(0x17)
     162                            .dwattr $C$DW$13, DW_AT_decl_file("../Application/MAC/HighLevel/mac_security_pib.c")
     163                            .dwattr $C$DW$13, DW_AT_decl_line(0xd5)
     164                            .dwattr $C$DW$13, DW_AT_decl_column(0x17)
     165                            .dwattr $C$DW$13, DW_AT_TI_max_frame_size(0x18)
TI ARM Assembler PC v16.9.4 Sat Nov 25 18:51:50 2017

Tools Copyright (c) 1996-2017 Texas Instruments Incorporated
C:\Users\Kevin\AppData\Local\Temp\{DC18D6BA-4494-45CB-997B-AC060EFC778A} PAGE    4

     166                            .dwpsn  file "../Application/MAC/HighLevel/mac_security_pib.c",line 214,column 1,is_stmt,addre
     167                    
     168                            .dwfde $C$DW$CIE, macSecurityPibReset
     169                    
     170                    ;*****************************************************************************
     171                    ;* FUNCTION NAME: macSecurityPibReset                                        *
     172                    ;*                                                                           *
     173                    ;*   Regs Modified     : A1,A2,A3,A4,V1,V2,V3,V4,V9,SP,LR,SR                 *
     174                    ;*   Regs Used         : A1,A2,A3,A4,V1,V2,V3,V4,V9,SP,LR,SR                 *
     175                    ;*   Local Frame Size  : 0 Args + 0 Auto + 20 Save = 20 byte                 *
     176                    ;*****************************************************************************
     177 00000000           macSecurityPibReset:
     178                    ;* --------------------------------------------------------------------------*
     179                    ;* V1    assigned to $O$C1
     180                    ;* A1    assigned to $O$K26
     181                    ;* V1    assigned to $O$U29
     182                    ;* A4    assigned to $O$K33
     183                    ;* A2    assigned to $O$K15
     184                    ;* V1    assigned to $O$U49
     185                    ;* V3    assigned to $O$K56
     186                    ;* V2    assigned to $O$K3
     187                    ;* A3    assigned to $O$K21
     188                    ;* A1    assigned to $O$U74
     189                    ;* V4    assigned to $O$L1
     190                    ;* V4    assigned to $O$L2
     191                    ;* V4    assigned to $O$L3
     192                            .dwcfi  cfa_offset, 0
     193 00000000 B5F8              PUSH      {A4, V1, V2, V3, V4, LR} ; [DPU_3_PIPE]  ; [ORIG 16-BIT INS]
     194                            .dwcfi  cfa_offset, 24
     195                            .dwcfi  save_reg_to_mem, 14, -4
     196                            .dwcfi  save_reg_to_mem, 7, -8
     197                            .dwcfi  save_reg_to_mem, 6, -12
     198                            .dwcfi  save_reg_to_mem, 5, -16
     199                            .dwcfi  save_reg_to_mem, 4, -20
     200                            .dwcfi  save_reg_to_mem, 3, -24
     201                            .dwpsn  file "../Application/MAC/HighLevel/mac_security_pib.c",line 248,column 3,is_stmt,isa 1
     202 00000002 4C1E              LDR       V1, $C$CON1           ; [DPU_3_PIPE] |248|  ; [ORIG 16-BIT INS]
     203 00000004 2100              MOVS      A2, #0                ; [DPU_3_PIPE] |248|  ; [ORIG 16-BIT INS]
     204 00000006 627CF240          MOV       A3, #1660             ; [DPU_3_PIPE] |248|  ; [KEEP 32-BIT INS]
     205 0000000a 4620              MOV       A1, V1                ; [DPU_3_PIPE] |248|  ; [ORIG 16-BIT INS]
     206                    $C$DW$14        .dwtag  DW_TAG_TI_branch
     207                            .dwattr $C$DW$14, DW_AT_low_pc(0x00)
     208                            .dwattr $C$DW$14, DW_AT_name("osal_memset")
     209                            .dwattr $C$DW$14, DW_AT_TI_call
     210                    
     211 0000000c FFFEF7FF!         BL        osal_memset           ; [DPU_3_PIPE] |248|  ; [KEEP 32-BIT INS]
     212                            ; CALL OCCURS {osal_memset }     ; [] |248| 
     213                            .dwpsn  file "../Application/MAC/HighLevel/mac_security_pib.c",line 256,column 7,is_stmt,isa 1
     214 00000010 21FF              MOVS      A2, #255              ; [DPU_3_PIPE] |256|  ; [ORIG 16-BIT INS]
     215 00000012 2208              MOVS      A3, #8                ; [DPU_3_PIPE] |256|  ; [ORIG 16-BIT INS]
     216 00000014 1D60              ADDS      A1, V1, #5            ; [DPU_3_PIPE]  ; [ORIG 16-BIT INS]
     217                    $C$DW$15        .dwtag  DW_TAG_TI_branch
     218                            .dwattr $C$DW$15, DW_AT_low_pc(0x00)
     219                            .dwattr $C$DW$15, DW_AT_name("osal_memset")
     220                            .dwattr $C$DW$15, DW_AT_TI_call
TI ARM Assembler PC v16.9.4 Sat Nov 25 18:51:50 2017

Tools Copyright (c) 1996-2017 Texas Instruments Incorporated
C:\Users\Kevin\AppData\Local\Temp\{DC18D6BA-4494-45CB-997B-AC060EFC778A} PAGE    5

     221                    
     222 00000016 FFFEF7FF!         BL        osal_memset           ; [DPU_3_PIPE] |256|  ; [KEEP 32-BIT INS]
     223                            ; CALL OCCURS {osal_memset }     ; [] |256| 
     224                            .dwpsn  file "../Application/MAC/HighLevel/mac_security_pib.c",line 258,column 7,is_stmt,isa 1
     225 0000001a 21FF              MOVS      A2, #255              ; [DPU_3_PIPE] |258|  ; [ORIG 16-BIT INS]
     226                            .dwpsn  file "../Application/MAC/HighLevel/mac_security_pib.c",line 259,column 7,is_stmt,isa 1
     227 0000001c 2208              MOVS      A3, #8                ; [DPU_3_PIPE] |259|  ; [ORIG 16-BIT INS]
     228 0000001e 000EF104          ADD       A1, V1, #14           ; [DPU_3_PIPE]  ; [KEEP 32-BIT INS]
     229                            .dwpsn  file "../Application/MAC/HighLevel/mac_security_pib.c",line 258,column 7,is_stmt,isa 1
     230 00000022 7361              STRB      A2, [V1, #13]         ; [DPU_3_PIPE] |258|  ; [ORIG 16-BIT INS]
     231                            .dwpsn  file "../Application/MAC/HighLevel/mac_security_pib.c",line 259,column 7,is_stmt,isa 1
     232                    $C$DW$16        .dwtag  DW_TAG_TI_branch
     233                            .dwattr $C$DW$16, DW_AT_low_pc(0x00)
     234                            .dwattr $C$DW$16, DW_AT_name("osal_memset")
     235                            .dwattr $C$DW$16, DW_AT_TI_call
     236                    
     237 00000024 FFFEF7FF!         BL        osal_memset           ; [DPU_3_PIPE] |259|  ; [KEEP 32-BIT INS]
     238                            ; CALL OCCURS {osal_memset }     ; [] |259| 
     239                            .dwpsn  file "../Application/MAC/HighLevel/mac_security_pib.c",line 266,column 19,is_stmt,isa 
     240 00000028 2702              MOVS      V4, #2                ; [DPU_3_PIPE] |266|  ; [ORIG 16-BIT INS]
     241                            .dwpsn  file "../Application/MAC/HighLevel/mac_security_pib.c",line 248,column 3,is_stmt,isa 1
     242 0000002a 4625              MOV       V2, V1                ; [DPU_3_PIPE] |248|  ; [ORIG 16-BIT INS]
     243                            .dwpsn  file "../Application/MAC/HighLevel/mac_security_pib.c",line 262,column 7,is_stmt,isa 1
     244 0000002c 2103              MOVS      A2, #3                ; [DPU_3_PIPE] |262|  ; [ORIG 16-BIT INS]
     245                            .dwpsn  file "../Application/MAC/HighLevel/mac_security_pib.c",line 263,column 7,is_stmt,isa 1
     246 0000002e 72FFF64F          MOV       A3, #65535            ; [DPU_3_PIPE] |263|  ; [KEEP 32-BIT INS]
     247 00000032 2001              MOVS      A1, #1                ; [DPU_3_PIPE]  ; [ORIG 16-BIT INS]
     248                            .dwpsn  file "../Application/MAC/HighLevel/mac_security_pib.c",line 262,column 7,is_stmt,isa 1
     249 00000034 77A1              STRB      A2, [V1, #30]         ; [DPU_3_PIPE] |262|  ; [ORIG 16-BIT INS]
     250 00000036 2304              MOVS      A4, #4                ; [DPU_3_PIPE]  ; [ORIG 16-BIT INS]
     251                            .dwpsn  file "../Application/MAC/HighLevel/mac_security_pib.c",line 263,column 7,is_stmt,isa 1
     252 00000038 8422              STRH      A3, [V1, #32]         ; [DPU_3_PIPE] |263|  ; [ORIG 16-BIT INS]
     253 0000003a 74DCF504          ADD       V1, V1, #440          ; [DPU_3_PIPE]  ; [KEEP 32-BIT INS]
     254                    ;* --------------------------------------------------------------------------*
     255                    ;*   BEGIN LOOP ||$C$L1||
     256                    ;*
     257                    ;*   Loop source line                : 266
     258                    ;*   Loop closing brace source line  : 273
     259                    ;*   Known Minimum Trip Count        : 2
     260                    ;*   Known Maximum Trip Count        : 2
     261                    ;*   Known Max Trip Count Factor     : 2
     262                    ;* --------------------------------------------------------------------------*
     263 0000003e           ||$C$L1||:    
     264                            .dwpsn  file "../Application/MAC/HighLevel/mac_security_pib.c",line 268,column 11,is_stmt,isa 
     265 0000003e 0F04F804          STRB      A1, [V1, #4]!         ; [DPU_3_PIPE] |268|  ; [KEEP 32-BIT INS]
     266                            .dwpsn  file "../Application/MAC/HighLevel/mac_security_pib.c",line 269,column 11,is_stmt,isa 
     267 00000042 7063              STRB      A4, [V1, #1]          ; [DPU_3_PIPE] |269|  ; [ORIG 16-BIT INS]
     268                            .dwpsn  file "../Application/MAC/HighLevel/mac_security_pib.c",line 271,column 11,is_stmt,isa 
     269 00000044 70A1              STRB      A2, [V1, #2]          ; [DPU_3_PIPE] |271|  ; [ORIG 16-BIT INS]
     270                            .dwpsn  file "../Application/MAC/HighLevel/mac_security_pib.c",line 266,column 19,is_stmt,isa 
     271 00000046 1E7F              SUBS      V4, V4, #1            ; [DPU_3_PIPE] |266|  ; [ORIG 16-BIT INS]
     272                            .dwpsn  file "../Application/MAC/HighLevel/mac_security_pib.c",line 272,column 11,is_stmt,isa 
     273 00000048 70E3              STRB      A4, [V1, #3]          ; [DPU_3_PIPE] |272|  ; [ORIG 16-BIT INS]
     274                            .dwpsn  file "../Application/MAC/HighLevel/mac_security_pib.c",line 266,column 19,is_stmt,isa 
     275 0000004a D1F8              BNE       ||$C$L1||             ; [DPU_3_PIPE] |266|  ; [ORIG 16-BIT INS]
TI ARM Assembler PC v16.9.4 Sat Nov 25 18:51:50 2017

Tools Copyright (c) 1996-2017 Texas Instruments Incorporated
C:\Users\Kevin\AppData\Local\Temp\{DC18D6BA-4494-45CB-997B-AC060EFC778A} PAGE    6

     276                            ; BRANCHCC OCCURS {||$C$L1||}    ; [] |266| 
     277                    ;* --------------------------------------------------------------------------*
     278 0000004c 64CEF505          ADD       V1, V2, #1648         ; [DPU_3_PIPE]  ; [KEEP 32-BIT INS]
     279 00000050 2605              MOVS      V3, #5                ; [DPU_3_PIPE]  ; [ORIG 16-BIT INS]
     280                            .dwpsn  file "../Application/MAC/HighLevel/mac_security_pib.c",line 276,column 19,is_stmt,isa 
     281 00000052 2702              MOVS      V4, #2                ; [DPU_3_PIPE] |276|  ; [ORIG 16-BIT INS]
     282                    ;* --------------------------------------------------------------------------*
     283                    ;*   BEGIN LOOP ||$C$L2||
     284                    ;*
     285                    ;*   Loop source line                : 276
     286                    ;*   Loop closing brace source line  : 282
     287                    ;*   Known Minimum Trip Count        : 2
     288                    ;*   Known Maximum Trip Count        : 2
     289                    ;*   Known Max Trip Count Factor     : 2
     290                    ;* --------------------------------------------------------------------------*
     291 00000054           ||$C$L2||:    
     292                            .dwpsn  file "../Application/MAC/HighLevel/mac_security_pib.c",line 278,column 11,is_stmt,isa 
     293 00000054 0F04F804          STRB      A1, [V1, #4]!         ; [DPU_3_PIPE] |278|  ; [KEEP 32-BIT INS]
     294                            .dwpsn  file "../Application/MAC/HighLevel/mac_security_pib.c",line 279,column 11,is_stmt,isa 
     295 00000058 7063              STRB      A4, [V1, #1]          ; [DPU_3_PIPE] |279|  ; [ORIG 16-BIT INS]
     296                            .dwpsn  file "../Application/MAC/HighLevel/mac_security_pib.c",line 280,column 11,is_stmt,isa 
     297 0000005a 70A6              STRB      V3, [V1, #2]          ; [DPU_3_PIPE] |280|  ; [ORIG 16-BIT INS]
     298                            .dwpsn  file "../Application/MAC/HighLevel/mac_security_pib.c",line 276,column 19,is_stmt,isa 
     299 0000005c 1E7F              SUBS      V4, V4, #1            ; [DPU_3_PIPE] |276|  ; [ORIG 16-BIT INS]
     300                            .dwpsn  file "../Application/MAC/HighLevel/mac_security_pib.c",line 281,column 11,is_stmt,isa 
     301 0000005e 70E0              STRB      A1, [V1, #3]          ; [DPU_3_PIPE] |281|  ; [ORIG 16-BIT INS]
     302                            .dwpsn  file "../Application/MAC/HighLevel/mac_security_pib.c",line 276,column 19,is_stmt,isa 
     303 00000060 D1F8              BNE       ||$C$L2||             ; [DPU_3_PIPE] |276|  ; [ORIG 16-BIT INS]
     304                            ; BRANCHCC OCCURS {||$C$L2||}    ; [] |276| 
     305                    ;* --------------------------------------------------------------------------*
     306                            .dwpsn  file "../Application/MAC/HighLevel/mac_security_pib.c",line 284,column 7,is_stmt,isa 1
     307 00000062 1678F885          STRB      A2, [V2, #1656]       ; [DPU_3_PIPE] |284|  ; [KEEP 32-BIT INS]
     308 00000066 70E3F505          ADD       A1, V2, #454          ; [DPU_3_PIPE]  ; [KEEP 32-BIT INS]
     309                            .dwpsn  file "../Application/MAC/HighLevel/mac_security_pib.c",line 287,column 19,is_stmt,isa 
     310 0000006a 2732              MOVS      V4, #50               ; [DPU_3_PIPE] |287|  ; [ORIG 16-BIT INS]
     311                    ;* --------------------------------------------------------------------------*
     312                    ;*   BEGIN LOOP ||$C$L3||
     313                    ;*
     314                    ;*   Loop source line                : 287
     315                    ;*   Loop closing brace source line  : 290
     316                    ;*   Known Minimum Trip Count        : 50
     317                    ;*   Known Maximum Trip Count        : 50
     318                    ;*   Known Max Trip Count Factor     : 50
     319                    ;* --------------------------------------------------------------------------*
     320 0000006c           ||$C$L3||:    
     321 0000006c 1E7F              SUBS      V4, V4, #1            ; [DPU_3_PIPE] |287|  ; [ORIG 16-BIT INS]
     322                            .dwpsn  file "../Application/MAC/HighLevel/mac_security_pib.c",line 289,column 11,is_stmt,isa 
     323 0000006e 2B18F820          STRH      A3, [A1], #24         ; [DPU_3_PIPE] |289|  ; [KEEP 32-BIT INS]
     324                            .dwpsn  file "../Application/MAC/HighLevel/mac_security_pib.c",line 287,column 19,is_stmt,isa 
     325 00000072 D1FB              BNE       ||$C$L3||             ; [DPU_3_PIPE] |287|  ; [ORIG 16-BIT INS]
     326                            ; BRANCHCC OCCURS {||$C$L3||}    ; [] |287| 
     327                    ;* --------------------------------------------------------------------------*
     328                            .dwpsn  file "../Application/MAC/HighLevel/mac_security_pib.c",line 296,column 3,is_stmt,isa 1
     329 00000074 2002              MOVS      A1, #2                ; [DPU_3_PIPE] |296|  ; [ORIG 16-BIT INS]
     330 00000076 70A8              STRB      A1, [V2, #2]          ; [DPU_3_PIPE] |296|  ; [ORIG 16-BIT INS]
TI ARM Assembler PC v16.9.4 Sat Nov 25 18:51:50 2017

Tools Copyright (c) 1996-2017 Texas Instruments Incorporated
C:\Users\Kevin\AppData\Local\Temp\{DC18D6BA-4494-45CB-997B-AC060EFC778A} PAGE    7

     331                    $C$DW$17        .dwtag  DW_TAG_TI_branch
     332                            .dwattr $C$DW$17, DW_AT_low_pc(0x00)
     333                            .dwattr $C$DW$17, DW_AT_TI_return
     334                    
     335 00000078 BDF8              POP       {A4, V1, V2, V3, V4, PC} ; [DPU_3_PIPE]  ; [ORIG 16-BIT INS]
     336                            .dwcfi  cfa_offset, 0
     337                            ; BRANCH OCCURS                  ; [] 
     338                            .dwattr $C$DW$13, DW_AT_TI_end_file("../Application/MAC/HighLevel/mac_security_pib.c")
     339                            .dwattr $C$DW$13, DW_AT_TI_end_line(0x129)
     340                            .dwattr $C$DW$13, DW_AT_TI_end_column(0x01)
     341                            .dwendentry
     342                            .dwendtag $C$DW$13
     343                    
     344 00000000                   .sect   ".text:macSecurityPibIndex"
     345                            .clink
     346                            .thumbfunc macSecurityPibIndex
     347 00000000                   .thumb
     348                            .global macSecurityPibIndex
     349                    
     350                    $C$DW$18        .dwtag  DW_TAG_subprogram
     351                            .dwattr $C$DW$18, DW_AT_name("macSecurityPibIndex")
     352                            .dwattr $C$DW$18, DW_AT_low_pc(macSecurityPibIndex)
     353                            .dwattr $C$DW$18, DW_AT_high_pc(0x00)
     354                            .dwattr $C$DW$18, DW_AT_TI_symbol_name("macSecurityPibIndex")
     355                            .dwattr $C$DW$18, DW_AT_external
     356                            .dwattr $C$DW$18, DW_AT_type(*$C$DW$T$19)
     357                            .dwattr $C$DW$18, DW_AT_TI_begin_file("../Application/MAC/HighLevel/mac_security_pib.c")
     358                            .dwattr $C$DW$18, DW_AT_TI_begin_line(0x13c)
     359                            .dwattr $C$DW$18, DW_AT_TI_begin_column(0x18)
     360                            .dwattr $C$DW$18, DW_AT_decl_file("../Application/MAC/HighLevel/mac_security_pib.c")
     361                            .dwattr $C$DW$18, DW_AT_decl_line(0x13c)
     362                            .dwattr $C$DW$18, DW_AT_decl_column(0x18)
     363                            .dwattr $C$DW$18, DW_AT_TI_max_frame_size(0x00)
     364                            .dwpsn  file "../Application/MAC/HighLevel/mac_security_pib.c",line 317,column 1,is_stmt,addre
     365                    
     366                            .dwfde $C$DW$CIE, macSecurityPibIndex
     367                    $C$DW$19        .dwtag  DW_TAG_formal_parameter
     368                            .dwattr $C$DW$19, DW_AT_name("pibAttribute")
     369                            .dwattr $C$DW$19, DW_AT_TI_symbol_name("pibAttribute")
     370                            .dwattr $C$DW$19, DW_AT_type(*$C$DW$T$19)
     371                            .dwattr $C$DW$19, DW_AT_location[DW_OP_reg0]
     372                    
     373                    
     374                    ;*****************************************************************************
     375                    ;* FUNCTION NAME: macSecurityPibIndex                                        *
     376                    ;*                                                                           *
     377                    ;*   Regs Modified     : A1,SR                                               *
     378                    ;*   Regs Used         : A1,LR,SR                                            *
     379                    ;*   Local Frame Size  : 0 Args + 0 Auto + 0 Save = 0 byte                   *
     380                    ;*****************************************************************************
     381                    macSecurityPibIndex:
     382                    ;* --------------------------------------------------------------------------*
     383                    ;* A1    assigned to pibAttribute
     384                    $C$DW$20        .dwtag  DW_TAG_variable
     385                            .dwattr $C$DW$20, DW_AT_name("pibAttribute")
TI ARM Assembler PC v16.9.4 Sat Nov 25 18:51:50 2017

Tools Copyright (c) 1996-2017 Texas Instruments Incorporated
C:\Users\Kevin\AppData\Local\Temp\{DC18D6BA-4494-45CB-997B-AC060EFC778A} PAGE    8

     386                            .dwattr $C$DW$20, DW_AT_TI_symbol_name("pibAttribute")
     387                            .dwattr $C$DW$20, DW_AT_type(*$C$DW$T$668)
     388                            .dwattr $C$DW$20, DW_AT_location[DW_OP_reg0]
     389                    
     390                            .dwcfi  cfa_offset, 0
     391                            .dwpsn  file "../Application/MAC/HighLevel/mac_security_pib.c",line 318,column 3,is_stmt,isa 1
     392 00000000 2881              CMP       A1, #129              ; [DPU_3_PIPE] |318|  ; [ORIG 16-BIT INS]
     393 00000002 DB01              BLT       ||$C$L4||             ; [DPU_3_PIPE] |318|  ; [ORIG 16-BIT INS]
     394                            ; BRANCHCC OCCURS {||$C$L4||}    ; [] |318| 
     395                    ;* --------------------------------------------------------------------------*
     396 00000004 288C              CMP       A1, #140              ; [DPU_3_PIPE] |318|  ; [ORIG 16-BIT INS]
     397 00000006 DB01              BLT       ||$C$L5||             ; [DPU_3_PIPE] |318|  ; [ORIG 16-BIT INS]
     398                            ; BRANCHCC OCCURS {||$C$L5||}    ; [] |318| 
     399                    ;* --------------------------------------------------------------------------*
     400 00000008           ||$C$L4||:    
     401                            .dwcfi  remember_state
     402                            .dwpsn  file "../Application/MAC/HighLevel/mac_security_pib.c",line 324,column 5,is_stmt,isa 1
     403 00000008 200B              MOVS      A1, #11               ; [DPU_3_PIPE] |324|  ; [ORIG 16-BIT INS]
     404                    $C$DW$21        .dwtag  DW_TAG_TI_branch
     405                            .dwattr $C$DW$21, DW_AT_low_pc(0x00)
     406                            .dwattr $C$DW$21, DW_AT_TI_return
     407                    
     408 0000000a 4770              BX        LR                    ; [DPU_3_PIPE]  ; [ORIG 16-BIT INS]
     409                            ; BRANCH OCCURS                  ; [] 
     410                            .dwcfi  restore_state
     411                    ;* --------------------------------------------------------------------------*
     412 0000000c           ||$C$L5||:    
     413                            .dwpsn  file "../Application/MAC/HighLevel/mac_security_pib.c",line 320,column 5,is_stmt,isa 1
     414 0000000c 307F              ADDS      A1, A1, #127          ; [DPU_3_PIPE] |320|  ; [ORIG 16-BIT INS]
     415 0000000e B2C0              UXTB      A1, A1                ; [DPU_3_PIPE] |320|  ; [ORIG 16-BIT INS]
     416                    ;* --------------------------------------------------------------------------*
     417                    $C$DW$22        .dwtag  DW_TAG_TI_branch
     418                            .dwattr $C$DW$22, DW_AT_low_pc(0x00)
     419                            .dwattr $C$DW$22, DW_AT_TI_return
     420                    
     421 00000010 4770              BX        LR                    ; [DPU_3_PIPE]  ; [ORIG 16-BIT INS]
     422                            ; BRANCH OCCURS                  ; [] 
     423                            .dwattr $C$DW$18, DW_AT_TI_end_file("../Application/MAC/HighLevel/mac_security_pib.c")
     424                            .dwattr $C$DW$18, DW_AT_TI_end_line(0x146)
     425                            .dwattr $C$DW$18, DW_AT_TI_end_column(0x01)
     426                            .dwendentry
     427                            .dwendtag $C$DW$18
     428                    
     429 00000000                   .sect   ".text:MAC_MlmeSetSecurityReq"
     430                            .clink
     431                            .thumbfunc MAC_MlmeSetSecurityReq
     432 00000000                   .thumb
     433                            .global MAC_MlmeSetSecurityReq
     434                    
     435                    $C$DW$23        .dwtag  DW_TAG_subprogram
     436                            .dwattr $C$DW$23, DW_AT_name("MAC_MlmeSetSecurityReq")
     437                            .dwattr $C$DW$23, DW_AT_low_pc(MAC_MlmeSetSecurityReq)
     438                            .dwattr $C$DW$23, DW_AT_high_pc(0x00)
     439                            .dwattr $C$DW$23, DW_AT_TI_symbol_name("MAC_MlmeSetSecurityReq")
     440                            .dwattr $C$DW$23, DW_AT_external
TI ARM Assembler PC v16.9.4 Sat Nov 25 18:51:50 2017

Tools Copyright (c) 1996-2017 Texas Instruments Incorporated
C:\Users\Kevin\AppData\Local\Temp\{DC18D6BA-4494-45CB-997B-AC060EFC778A} PAGE    9

     441                            .dwattr $C$DW$23, DW_AT_type(*$C$DW$T$19)
     442                            .dwattr $C$DW$23, DW_AT_TI_begin_file("../Application/MAC/HighLevel/mac_security_pib.c")
     443                            .dwattr $C$DW$23, DW_AT_TI_begin_line(0x22e)
     444                            .dwattr $C$DW$23, DW_AT_TI_begin_column(0x07)
     445                            .dwattr $C$DW$23, DW_AT_decl_file("../Application/MAC/HighLevel/mac_security_pib.c")
     446                            .dwattr $C$DW$23, DW_AT_decl_line(0x22e)
     447                            .dwattr $C$DW$23, DW_AT_decl_column(0x07)
     448                            .dwattr $C$DW$23, DW_AT_TI_max_frame_size(0x18)
     449                            .dwpsn  file "../Application/MAC/HighLevel/mac_security_pib.c",line 559,column 1,is_stmt,addre
     450                    
     451                            .dwfde $C$DW$CIE, MAC_MlmeSetSecurityReq
     452                    $C$DW$24        .dwtag  DW_TAG_formal_parameter
     453                            .dwattr $C$DW$24, DW_AT_name("pibAttribute")
     454                            .dwattr $C$DW$24, DW_AT_TI_symbol_name("pibAttribute")
     455                            .dwattr $C$DW$24, DW_AT_type(*$C$DW$T$19)
     456                            .dwattr $C$DW$24, DW_AT_location[DW_OP_reg0]
     457                    
     458                    $C$DW$25        .dwtag  DW_TAG_formal_parameter
     459                            .dwattr $C$DW$25, DW_AT_name("pValue")
     460                            .dwattr $C$DW$25, DW_AT_TI_symbol_name("pValue")
     461                            .dwattr $C$DW$25, DW_AT_type(*$C$DW$T$3)
     462                            .dwattr $C$DW$25, DW_AT_location[DW_OP_reg1]
     463                    
     464                    
     465                    ;*****************************************************************************
     466                    ;* FUNCTION NAME: MAC_MlmeSetSecurityReq                                     *
     467                    ;*                                                                           *
     468                    ;*   Regs Modified     : A1,A2,A3,A4,V1,V2,V3,V4,V5,V9,SP,LR,SR              *
     469                    ;*   Regs Used         : A1,A2,A3,A4,V1,V2,V3,V4,V5,V9,SP,LR,SR              *
     470                    ;*   Local Frame Size  : 0 Args + 0 Auto + 24 Save = 24 byte                 *
     471                    ;*****************************************************************************
     472                    MAC_MlmeSetSecurityReq:
     473                    ;* --------------------------------------------------------------------------*
     474                    ;* A1    assigned to $O$C1
     475                    ;* A2    assigned to $O$C2
     476                    ;* V2    assigned to $O$C3
     477                    ;* A1    assigned to $O$C4
     478                    ;* V5    assigned to $O$C5
     479                    ;* V3    assigned to $O$C6
     480                    ;* A1    assigned to $O$C7
     481                    ;* A2    assigned to $O$C8
     482                    ;* A3    assigned to $O$C9
     483                    ;* A1    assigned to $O$C10
     484                    ;* A1    assigned to $O$K41
     485                    ;* A1    assigned to keyIndex
     486                    $C$DW$26        .dwtag  DW_TAG_variable
     487                            .dwattr $C$DW$26, DW_AT_name("keyIndex")
     488                            .dwattr $C$DW$26, DW_AT_TI_symbol_name("keyIndex")
     489                            .dwattr $C$DW$26, DW_AT_type(*$C$DW$T$10)
     490                            .dwattr $C$DW$26, DW_AT_location[DW_OP_reg0]
     491                    
     492                    ;* A3    assigned to keyIndex
     493                    $C$DW$27        .dwtag  DW_TAG_variable
     494                            .dwattr $C$DW$27, DW_AT_name("keyIndex")
     495                            .dwattr $C$DW$27, DW_AT_TI_symbol_name("keyIndex")
TI ARM Assembler PC v16.9.4 Sat Nov 25 18:51:50 2017

Tools Copyright (c) 1996-2017 Texas Instruments Incorporated
C:\Users\Kevin\AppData\Local\Temp\{DC18D6BA-4494-45CB-997B-AC060EFC778A} PAGE   10

     496                            .dwattr $C$DW$27, DW_AT_type(*$C$DW$T$10)
     497                            .dwattr $C$DW$27, DW_AT_location[DW_OP_reg2]
     498                    
     499                    ;* A3    assigned to keyIndex
     500                    $C$DW$28        .dwtag  DW_TAG_variable
     501                            .dwattr $C$DW$28, DW_AT_name("keyIndex")
     502                            .dwattr $C$DW$28, DW_AT_TI_symbol_name("keyIndex")
     503                            .dwattr $C$DW$28, DW_AT_type(*$C$DW$T$10)
     504                            .dwattr $C$DW$28, DW_AT_location[DW_OP_reg2]
     505                    
     506                    ;* V3    assigned to keyIndex
     507                    $C$DW$29        .dwtag  DW_TAG_variable
     508                            .dwattr $C$DW$29, DW_AT_name("keyIndex")
     509                            .dwattr $C$DW$29, DW_AT_TI_symbol_name("keyIndex")
     510                            .dwattr $C$DW$29, DW_AT_type(*$C$DW$T$10)
     511                            .dwattr $C$DW$29, DW_AT_location[DW_OP_reg6]
     512                    
     513                    ;* V4    assigned to entry
     514                    $C$DW$30        .dwtag  DW_TAG_variable
     515                            .dwattr $C$DW$30, DW_AT_name("entry")
     516                            .dwattr $C$DW$30, DW_AT_TI_symbol_name("entry")
     517                            .dwattr $C$DW$30, DW_AT_type(*$C$DW$T$10)
     518                            .dwattr $C$DW$30, DW_AT_location[DW_OP_reg7]
     519                    
     520                    ;* A2    assigned to entry
     521                    $C$DW$31        .dwtag  DW_TAG_variable
     522                            .dwattr $C$DW$31, DW_AT_name("entry")
     523                            .dwattr $C$DW$31, DW_AT_TI_symbol_name("entry")
     524                            .dwattr $C$DW$31, DW_AT_type(*$C$DW$T$10)
     525                            .dwattr $C$DW$31, DW_AT_location[DW_OP_reg1]
     526                    
     527                    ;* A2    assigned to entry
     528                    $C$DW$32        .dwtag  DW_TAG_variable
     529                            .dwattr $C$DW$32, DW_AT_name("entry")
     530                            .dwattr $C$DW$32, DW_AT_TI_symbol_name("entry")
     531                            .dwattr $C$DW$32, DW_AT_type(*$C$DW$T$10)
     532                            .dwattr $C$DW$32, DW_AT_location[DW_OP_reg1]
     533                    
     534                    ;* V2    assigned to $O$U13
     535                    ;* A2    assigned to $O$U15
     536                    ;* V1    assigned to $O$U181
     537                    ;* A3    assigned to $O$U183
     538                    ;* A4    assigned to $O$U190
     539                    ;* A2    assigned to $O$U196
     540                    ;* A1    assigned to $O$L1
     541                    ;* A2    assigned to pibAttribute
     542                    $C$DW$33        .dwtag  DW_TAG_variable
     543                            .dwattr $C$DW$33, DW_AT_name("pibAttribute")
     544                            .dwattr $C$DW$33, DW_AT_TI_symbol_name("pibAttribute")
     545                            .dwattr $C$DW$33, DW_AT_type(*$C$DW$T$668)
     546                            .dwattr $C$DW$33, DW_AT_location[DW_OP_reg1]
     547                    
     548                    ;* V1    assigned to pValue
     549                    $C$DW$34        .dwtag  DW_TAG_variable
     550                            .dwattr $C$DW$34, DW_AT_name("pValue")
TI ARM Assembler PC v16.9.4 Sat Nov 25 18:51:50 2017

Tools Copyright (c) 1996-2017 Texas Instruments Incorporated
C:\Users\Kevin\AppData\Local\Temp\{DC18D6BA-4494-45CB-997B-AC060EFC778A} PAGE   11

     551                            .dwattr $C$DW$34, DW_AT_TI_symbol_name("pValue")
     552                            .dwattr $C$DW$34, DW_AT_type(*$C$DW$T$629)
     553                            .dwattr $C$DW$34, DW_AT_location[DW_OP_reg4]
     554                    
     555                    ;* A1    assigned to i
     556                    $C$DW$35        .dwtag  DW_TAG_variable
     557                            .dwattr $C$DW$35, DW_AT_name("i")
     558                            .dwattr $C$DW$35, DW_AT_TI_symbol_name("i")
     559                            .dwattr $C$DW$35, DW_AT_type(*$C$DW$T$10)
     560                            .dwattr $C$DW$35, DW_AT_location[DW_OP_reg0]
     561                    
     562                    ;* V3    assigned to intState
     563                    $C$DW$36        .dwtag  DW_TAG_variable
     564                            .dwattr $C$DW$36, DW_AT_name("intState")
     565                            .dwattr $C$DW$36, DW_AT_TI_symbol_name("intState")
     566                            .dwattr $C$DW$36, DW_AT_type(*$C$DW$T$691)
     567                            .dwattr $C$DW$36, DW_AT_location[DW_OP_reg6]
     568                    
     569                            .dwcfi  cfa_offset, 0
     570 00000000 41F0E92D          PUSH      {V1, V2, V3, V4, V5, LR} ; [DPU_3_PIPE]  ; [KEEP 32-BIT INS]
     571                            .dwcfi  cfa_offset, 24
     572                            .dwcfi  save_reg_to_mem, 14, -4
     573                            .dwcfi  save_reg_to_mem, 8, -8
     574                            .dwcfi  save_reg_to_mem, 7, -12
     575                            .dwcfi  save_reg_to_mem, 6, -16
     576                            .dwcfi  save_reg_to_mem, 5, -20
     577                            .dwcfi  save_reg_to_mem, 4, -24
     578                            .dwpsn  file "../Application/MAC/HighLevel/mac_security_pib.c",line 659,column 9,is_stmt,isa 1
     579 00000004 4B74              LDR       A4, $C$CON11          ; [DPU_3_PIPE] |659|  ; [ORIG 16-BIT INS]
     580                            .dwpsn  file "../Application/MAC/HighLevel/mac_security_pib.c",line 649,column 9,is_stmt,isa 1
     581 00000006 4A75              LDR       A3, $C$CON12          ; [DPU_3_PIPE] |649|  ; [ORIG 16-BIT INS]
     582                            .dwpsn  file "../Application/MAC/HighLevel/mac_security_pib.c",line 588,column 9,is_stmt,isa 1
     583 00000008 81C4F8DF          LDR       V5, $C$CON9           ; [DPU_3_PIPE] |588|  ; [KEEP 32-BIT INS]
     584                            .dwpsn  file "../Application/MAC/HighLevel/mac_security_pib.c",line 559,column 1,is_stmt,isa 1
     585 0000000c 460C              MOV       V1, A2                ; [DPU_3_PIPE] |559|  ; [ORIG 16-BIT INS]
     586                            .dwpsn  file "../Application/MAC/HighLevel/mac_security_pib.c",line 564,column 3,is_stmt,isa 1
     587 0000000e 28D1              CMP       A1, #209              ; [DPU_3_PIPE] |564|  ; [ORIG 16-BIT INS]
     588                            .dwpsn  file "../Application/MAC/HighLevel/mac_security_pib.c",line 559,column 1,is_stmt,isa 1
     589 00000010 4601              MOV       A2, A1                ; [DPU_3_PIPE] |559|  ; [ORIG 16-BIT INS]
     590                            .dwpsn  file "../Application/MAC/HighLevel/mac_security_pib.c",line 564,column 3,is_stmt,isa 1
     591 00000012 DC10              BGT       ||$C$L6||             ; [DPU_3_PIPE] |564|  ; [ORIG 16-BIT INS]
     592                            ; BRANCHCC OCCURS {||$C$L6||}    ; [] |564| 
     593                    ;* --------------------------------------------------------------------------*
     594 00000014 28D1              CMP       A1, #209              ; [DPU_3_PIPE] |564|  ; [ORIG 16-BIT INS]
     595 00000016 D07A              BEQ       ||$C$L16||            ; [DPU_3_PIPE] |564|  ; [ORIG 16-BIT INS]
     596                            ; BRANCHCC OCCURS {||$C$L16||}   ; [] |564| 
     597                    ;* --------------------------------------------------------------------------*
     598 00000018 3871              SUBS      A1, A1, #113          ; [DPU_3_PIPE] |564|  ; [ORIG 16-BIT INS]
     599 0000001a AFFEF43F!         BEQ       ||$C$L23||            ; [DPU_3_PIPE] |564|  ; [KEEP 32-BIT INS]
     600                            ; BRANCHCC OCCURS {||$C$L23||}   ; [] |564| 
     601                    ;* --------------------------------------------------------------------------*
     602 0000001e 1E40              SUBS      A1, A1, #1            ; [DPU_3_PIPE] |564|  ; [ORIG 16-BIT INS]
     603 00000020 AFFEF43F!         BEQ       ||$C$L22||            ; [DPU_3_PIPE] |564|  ; [KEEP 32-BIT INS]
     604                            ; BRANCHCC OCCURS {||$C$L22||}   ; [] |564| 
     605                    ;* --------------------------------------------------------------------------*
TI ARM Assembler PC v16.9.4 Sat Nov 25 18:51:50 2017

Tools Copyright (c) 1996-2017 Texas Instruments Incorporated
C:\Users\Kevin\AppData\Local\Temp\{DC18D6BA-4494-45CB-997B-AC060EFC778A} PAGE   12

     606 00000024 1E40              SUBS      A1, A1, #1            ; [DPU_3_PIPE] |564|  ; [ORIG 16-BIT INS]
     607 00000026 AFFEF43F!         BEQ       ||$C$L21||            ; [DPU_3_PIPE] |564|  ; [KEEP 32-BIT INS]
     608                            ; BRANCHCC OCCURS {||$C$L21||}   ; [] |564| 
     609                    ;* --------------------------------------------------------------------------*
     610 0000002a 3811              SUBS      A1, A1, #17           ; [DPU_3_PIPE] |564|  ; [ORIG 16-BIT INS]
     611 0000002c D010              BEQ       ||$C$L8||             ; [DPU_3_PIPE] |564|  ; [ORIG 16-BIT INS]
     612                            ; BRANCHCC OCCURS {||$C$L8||}    ; [] |564| 
     613                    ;* --------------------------------------------------------------------------*
     614 0000002e 384C              SUBS      A1, A1, #76           ; [DPU_3_PIPE] |564|  ; [ORIG 16-BIT INS]
     615 00000030 AFFEF43F!         BEQ       ||$C$L18||            ; [DPU_3_PIPE] |564|  ; [KEEP 32-BIT INS]
     616                            ; BRANCHCC OCCURS {||$C$L18||}   ; [] |564| 
     617                    ;* --------------------------------------------------------------------------*
     618 00000034 E007              B         ||$C$L7||             ; [DPU_3_PIPE] |564|  ; [ORIG 16-BIT INS]
     619                            ; BRANCH OCCURS {||$C$L7||}      ; [] |564| 
     620                    ;* --------------------------------------------------------------------------*
     621 00000036           ||$C$L6||:    
     622 00000036 38D2              SUBS      A1, A1, #210          ; [DPU_3_PIPE] |564|  ; [ORIG 16-BIT INS]
     623 00000038 D054              BEQ       ||$C$L15||            ; [DPU_3_PIPE] |564|  ; [ORIG 16-BIT INS]
     624                            ; BRANCHCC OCCURS {||$C$L15||}   ; [] |564| 
     625                    ;* --------------------------------------------------------------------------*
     626 0000003a 1E40              SUBS      A1, A1, #1            ; [DPU_3_PIPE] |564|  ; [ORIG 16-BIT INS]
     627 0000003c D041              BEQ       ||$C$L14||            ; [DPU_3_PIPE] |564|  ; [ORIG 16-BIT INS]
     628                            ; BRANCHCC OCCURS {||$C$L14||}   ; [] |564| 
     629                    ;* --------------------------------------------------------------------------*
     630 0000003e 1E40              SUBS      A1, A1, #1            ; [DPU_3_PIPE] |564|  ; [ORIG 16-BIT INS]
     631 00000040 D034              BEQ       ||$C$L13||            ; [DPU_3_PIPE] |564|  ; [ORIG 16-BIT INS]
     632                            ; BRANCHCC OCCURS {||$C$L13||}   ; [] |564| 
     633                    ;* --------------------------------------------------------------------------*
     634 00000042 1E40              SUBS      A1, A1, #1            ; [DPU_3_PIPE] |564|  ; [ORIG 16-BIT INS]
     635 00000044 D029              BEQ       ||$C$L12||            ; [DPU_3_PIPE] |564|  ; [ORIG 16-BIT INS]
     636                            ; BRANCHCC OCCURS {||$C$L12||}   ; [] |564| 
     637                    ;* --------------------------------------------------------------------------*
     638 00000046           ||$C$L7||:    
     639                            .dwpsn  file "../Application/MAC/HighLevel/mac_security_pib.c",line 684,column 3,is_stmt,isa 1
     640 00000046 4608              MOV       A1, A2                ; [DPU_3_PIPE] |684|  ; [ORIG 16-BIT INS]
     641                    $C$DW$37        .dwtag  DW_TAG_TI_branch
     642                            .dwattr $C$DW$37, DW_AT_low_pc(0x00)
     643                            .dwattr $C$DW$37, DW_AT_name("macSecurityPibIndex")
     644                            .dwattr $C$DW$37, DW_AT_TI_call
     645                    
     646 00000048 FFFEF7FF!         BL        macSecurityPibIndex   ; [DPU_3_PIPE] |684|  ; [KEEP 32-BIT INS]
     647                            ; CALL OCCURS {macSecurityPibIndex }  ; [] |684| 
     648 0000004c 280B              CMP       A1, #11               ; [DPU_3_PIPE] |684|  ; [ORIG 16-BIT INS]
     649 0000004e D102              BNE       ||$C$L9||             ; [DPU_3_PIPE] |684|  ; [ORIG 16-BIT INS]
     650                            ; BRANCHCC OCCURS {||$C$L9||}    ; [] |684| 
     651                    ;* --------------------------------------------------------------------------*
     652 00000050           ||$C$L8||:    
     653                            .dwcfi  remember_state
     654                            .dwpsn  file "../Application/MAC/HighLevel/mac_security_pib.c",line 686,column 5,is_stmt,isa 1
     655 00000050 20F4              MOVS      A1, #244              ; [DPU_3_PIPE] |686|  ; [ORIG 16-BIT INS]
     656                    $C$DW$38        .dwtag  DW_TAG_TI_branch
     657                            .dwattr $C$DW$38, DW_AT_low_pc(0x00)
     658                            .dwattr $C$DW$38, DW_AT_TI_return
     659                    
     660 00000052 81F0E8BD          POP       {V1, V2, V3, V4, V5, PC} ; [DPU_3_PIPE]  ; [KEEP 32-BIT INS]
TI ARM Assembler PC v16.9.4 Sat Nov 25 18:51:50 2017

Tools Copyright (c) 1996-2017 Texas Instruments Incorporated
C:\Users\Kevin\AppData\Local\Temp\{DC18D6BA-4494-45CB-997B-AC060EFC778A} PAGE   13

     661                            .dwcfi  cfa_offset, 0
     662                            ; BRANCH OCCURS                  ; [] 
     663                            .dwcfi  restore_reg, 8
     664                            .dwcfi  restore_reg, 7
     665                            .dwcfi  restore_reg, 6
     666                            .dwcfi  restore_reg, 5
     667                            .dwcfi  restore_reg, 4
     668                            .dwcfi  restore_state
     669                    ;* --------------------------------------------------------------------------*
     670 00000056           ||$C$L9||:    
     671                            .dwpsn  file "../Application/MAC/HighLevel/mac_security_pib.c",line 690,column 3,is_stmt,isa 1
     672 00000056 4D5C              LDR       V2, $C$CON7           ; [DPU_3_PIPE] |690|  ; [ORIG 16-BIT INS]
     673 00000058 0580EB05          ADD       V2, V2, A1, LSL #2    ; [DPU_3_PIPE] |690|  ; [KEEP 32-BIT INS]
     674 0000005c 78A9              LDRB      A2, [V2, #2]          ; [DPU_3_PIPE] |690|  ; [ORIG 16-BIT INS]
     675 0000005e B909              CBNZ      A2, ||$C$L10||        ; []  ; [ORIG 16-BIT INS]
     676                            ; BRANCHCC OCCURS {||$C$L10||}   ; [] |690| 
     677                    ;* --------------------------------------------------------------------------*
     678 00000060 78E8              LDRB      A1, [V2, #3]          ; [DPU_3_PIPE] |690|  ; [ORIG 16-BIT INS]
     679 00000062 B150              CBZ       A1, ||$C$L11||        ; []  ; [ORIG 16-BIT INS]
     680                            ; BRANCHCC OCCURS {||$C$L11||}   ; [] |690| 
     681                    ;* --------------------------------------------------------------------------*
     682 00000064           ||$C$L10||:    
     683                            .dwpsn  file "../Application/MAC/HighLevel/mac_security_pib.c",line 693,column 5,is_stmt,isa 1
     684 00000064 78E8              LDRB      A1, [V2, #3]          ; [DPU_3_PIPE] |693|  ; [ORIG 16-BIT INS]
     685 00000066 4288              CMP       A1, A2                ; [DPU_3_PIPE] |693|  ; [ORIG 16-BIT INS]
     686 00000068 BF08              IT        EQ                    ; [DPU_3_PIPE]  ; [ORIG 16-BIT INS]
     687                            .dwpsn  file "../Application/MAC/HighLevel/mac_security_pib.c",line 695,column 7,is_stmt,isa 1
     688 0000006a 20FB              MOVEQ     A1, #251              ; [DPU_3_PIPE] |695|  ; [ORIG 16-BIT INS]
     689 0000006c AFFEF43F!         BEQ       ||$C$L28||            ; [DPU_3_PIPE] |695|  ; [KEEP 32-BIT INS]
     690                            ; BRANCHCC OCCURS {||$C$L28||}   ; [] |695| 
     691                    ;* --------------------------------------------------------------------------*
     692                            .dwpsn  file "../Application/MAC/HighLevel/mac_security_pib.c",line 699,column 5,is_stmt,isa 1
     693 00000070 7822              LDRB      A3, [V1, #0]          ; [DPU_3_PIPE] |699|  ; [ORIG 16-BIT INS]
     694 00000072 4291              CMP       A2, A3                ; [DPU_3_PIPE] |699|  ; [ORIG 16-BIT INS]
     695 00000074 DC6B              BGT       ||$C$L19||            ; [DPU_3_PIPE] |699|  ; [ORIG 16-BIT INS]
     696                            ; BRANCHCC OCCURS {||$C$L19||}   ; [] |699| 
     697                    ;* --------------------------------------------------------------------------*
     698 00000076 4290              CMP       A1, A3                ; [DPU_3_PIPE] |699|  ; [ORIG 16-BIT INS]
     699 00000078 DB69              BLT       ||$C$L19||            ; [DPU_3_PIPE] |699|  ; [ORIG 16-BIT INS]
     700                            ; BRANCHCC OCCURS {||$C$L19||}   ; [] |699| 
     701                    ;* --------------------------------------------------------------------------*
     702 0000007a           ||$C$L11||:    
     703                            .dwpsn  file "../Application/MAC/HighLevel/mac_security_pib.c",line 706,column 3,is_stmt,isa 1
     704 0000007a 4854              LDR       A1, $C$CON8           ; [DPU_3_PIPE] |706|  ; [ORIG 16-BIT INS]
     705 0000007c 6800              LDR       A1, [A1, #0]          ; [DPU_3_PIPE] |706|  ; [ORIG 16-BIT INS]
     706                    $C$DW$39        .dwtag  DW_TAG_TI_branch
     707                            .dwattr $C$DW$39, DW_AT_low_pc(0x00)
     708                            .dwattr $C$DW$39, DW_AT_TI_call
     709                            .dwattr $C$DW$39, DW_AT_TI_indirect
     710                    
     711 0000007e 4780              BLX       A1                    ; [DPU_3_PIPE] |706|  ; [ORIG 16-BIT INS]
     712                            ; CALL OCCURS {}                 ; [] |706| 
     713                            .dwpsn  file "../Application/MAC/HighLevel/mac_security_pib.c",line 707,column 3,is_stmt,isa 1
     714 00000080 7829              LDRB      A2, [V2, #0]          ; [DPU_3_PIPE] |707|  ; [ORIG 16-BIT INS]
     715 00000082 786A              LDRB      A3, [V2, #1]          ; [DPU_3_PIPE] |707|  ; [ORIG 16-BIT INS]
TI ARM Assembler PC v16.9.4 Sat Nov 25 18:51:50 2017

Tools Copyright (c) 1996-2017 Texas Instruments Incorporated
C:\Users\Kevin\AppData\Local\Temp\{DC18D6BA-4494-45CB-997B-AC060EFC778A} PAGE   14

     716                            .dwpsn  file "../Application/MAC/HighLevel/mac_security_pib.c",line 706,column 3,is_stmt,isa 1
     717 00000084 4606              MOV       V3, A1                ; [DPU_3_PIPE] |706|  ; [ORIG 16-BIT INS]
     718                            .dwpsn  file "../Application/MAC/HighLevel/mac_security_pib.c",line 707,column 3,is_stmt,isa 1
     719 00000086 4640              MOV       A1, V5                ; [DPU_3_PIPE] |707|  ; [ORIG 16-BIT INS]
     720 00000088 1840              ADDS      A1, A1, A2            ; [DPU_3_PIPE] |707|  ; [ORIG 16-BIT INS]
     721 0000008a 4621              MOV       A2, V1                ; [DPU_3_PIPE] |707|  ; [ORIG 16-BIT INS]
     722                    $C$DW$40        .dwtag  DW_TAG_TI_branch
     723                            .dwattr $C$DW$40, DW_AT_low_pc(0x00)
     724                            .dwattr $C$DW$40, DW_AT_name("osal_memcpy")
     725                            .dwattr $C$DW$40, DW_AT_TI_call
     726                    
     727 0000008c FFFEF7FF!         BL        osal_memcpy           ; [DPU_3_PIPE] |707|  ; [KEEP 32-BIT INS]
     728                            ; CALL OCCURS {osal_memcpy }     ; [] |707| 
     729                            .dwpsn  file "../Application/MAC/HighLevel/mac_security_pib.c",line 708,column 3,is_stmt,isa 1
     730 00000090 4850              LDR       A1, $C$CON10          ; [DPU_3_PIPE] |708|  ; [ORIG 16-BIT INS]
     731 00000092 6801              LDR       A2, [A1, #0]          ; [DPU_3_PIPE] |708|  ; [ORIG 16-BIT INS]
     732 00000094 4630              MOV       A1, V3                ; [DPU_3_PIPE] |708|  ; [ORIG 16-BIT INS]
     733                    $C$DW$41        .dwtag  DW_TAG_TI_branch
     734                            .dwattr $C$DW$41, DW_AT_low_pc(0x00)
     735                            .dwattr $C$DW$41, DW_AT_TI_call
     736                            .dwattr $C$DW$41, DW_AT_TI_indirect
     737                    
     738 00000096 4788              BLX       A2                    ; [DPU_3_PIPE] |708|  ; [ORIG 16-BIT INS]
     739                            ; CALL OCCURS {}                 ; [] |708| 
     740                            .dwpsn  file "../Application/MAC/HighLevel/mac_security_pib.c",line 710,column 3,is_stmt,isa 1
     741 00000098 E092              B         ||$C$L27||            ; [DPU_3_PIPE] |710|  ; [ORIG 16-BIT INS]
     742                            ; BRANCH OCCURS {||$C$L27||}     ; [] |710| 
     743                    ;* --------------------------------------------------------------------------*
     744 0000009a           ||$C$L12||:    
     745                            .dwpsn  file "../Application/MAC/HighLevel/mac_security_pib.c",line 674,column 7,is_stmt,isa 1
     746 0000009a 7821              LDRB      A2, [V1, #0]          ; [DPU_3_PIPE] |674|  ; [ORIG 16-BIT INS]
     747 0000009c 2902              CMP       A2, #2                ; [DPU_3_PIPE] |674|  ; [ORIG 16-BIT INS]
     748 0000009e DA56              BGE       ||$C$L19||            ; [DPU_3_PIPE] |674|  ; [ORIG 16-BIT INS]
     749                            ; BRANCHCC OCCURS {||$C$L19||}   ; [] |674| 
     750                    ;* --------------------------------------------------------------------------*
     751                            .dwpsn  file "../Application/MAC/HighLevel/mac_security_pib.c",line 678,column 7,is_stmt,isa 1
     752 000000a0 4618              MOV       A1, A4                ; [DPU_3_PIPE] |678|  ; [ORIG 16-BIT INS]
     753 000000a2 1C64              ADDS      V1, V1, #1            ; [DPU_3_PIPE] |678|  ; [ORIG 16-BIT INS]
     754 000000a4 2204              MOVS      A3, #4                ; [DPU_3_PIPE] |678|  ; [ORIG 16-BIT INS]
     755 000000a6 0081EB00          ADD       A1, A1, A2, LSL #2    ; [DPU_3_PIPE] |678|  ; [KEEP 32-BIT INS]
     756                            .dwpsn  file "../Application/MAC/HighLevel/mac_security_pib.c",line 679,column 7,is_stmt,isa 1
     757 000000aa E086              B         ||$C$L26||            ; [DPU_3_PIPE] |679|  ; [ORIG 16-BIT INS]
     758                            ; BRANCH OCCURS {||$C$L26||}     ; [] |679| 
     759                    ;* --------------------------------------------------------------------------*
     760 000000ac           ||$C$L13||:    
     761                            .dwpsn  file "../Application/MAC/HighLevel/mac_security_pib.c",line 665,column 7,is_stmt,isa 1
     762 000000ac 7820              LDRB      A1, [V1, #0]          ; [DPU_3_PIPE] |665|  ; [ORIG 16-BIT INS]
     763 000000ae 2832              CMP       A1, #50               ; [DPU_3_PIPE] |665|  ; [ORIG 16-BIT INS]
     764 000000b0 DA4D              BGE       ||$C$L19||            ; [DPU_3_PIPE] |665|  ; [ORIG 16-BIT INS]
     765                            ; BRANCHCC OCCURS {||$C$L19||}   ; [] |665| 
     766                    ;* --------------------------------------------------------------------------*
     767                            .dwpsn  file "../Application/MAC/HighLevel/mac_security_pib.c",line 669,column 7,is_stmt,isa 1
     768 000000b2 4617              MOV       V4, A3                ; [DPU_3_PIPE] |669|  ; [ORIG 16-BIT INS]
     769 000000b4 00C1              LSLS      A2, A1, #3            ; [DPU_3_PIPE] |669|  ; [ORIG 16-BIT INS]
     770 000000b6 1D24              ADDS      V1, V1, #4            ; [DPU_3_PIPE] |669|  ; [ORIG 16-BIT INS]
TI ARM Assembler PC v16.9.4 Sat Nov 25 18:51:50 2017

Tools Copyright (c) 1996-2017 Texas Instruments Incorporated
C:\Users\Kevin\AppData\Local\Temp\{DC18D6BA-4494-45CB-997B-AC060EFC778A} PAGE   15

     771 000000b8 2218              MOVS      A3, #24               ; [DPU_3_PIPE] |669|  ; [ORIG 16-BIT INS]
     772 000000ba 1100EB01          ADD       A2, A2, A1, LSL #4    ; [DPU_3_PIPE] |669|  ; [KEEP 32-BIT INS]
     773 000000be 1878              ADDS      A1, V4, A2            ; [DPU_3_PIPE] |669|  ; [ORIG 16-BIT INS]
     774                            .dwpsn  file "../Application/MAC/HighLevel/mac_security_pib.c",line 670,column 7,is_stmt,isa 1
     775 000000c0 E07B              B         ||$C$L26||            ; [DPU_3_PIPE] |670|  ; [ORIG 16-BIT INS]
     776                            ; BRANCH OCCURS {||$C$L26||}     ; [] |670| 
     777                    ;* --------------------------------------------------------------------------*
     778 000000c2           ||$C$L14||:    
     779                            .dwpsn  file "../Application/MAC/HighLevel/mac_security_pib.c",line 634,column 7,is_stmt,isa 1
     780 000000c2 7826              LDRB      V3, [V1, #0]          ; [DPU_3_PIPE] |634|  ; [ORIG 16-BIT INS]
     781                            .dwpsn  file "../Application/MAC/HighLevel/mac_security_pib.c",line 635,column 7,is_stmt,isa 1
     782 000000c4 4630              MOV       A1, V3                ; [DPU_3_PIPE] |635|  ; [ORIG 16-BIT INS]
     783 000000c6 2802              CMP       A1, #2                ; [DPU_3_PIPE] |635|  ; [ORIG 16-BIT INS]
     784 000000c8 DA41              BGE       ||$C$L19||            ; [DPU_3_PIPE] |635|  ; [ORIG 16-BIT INS]
     785                            ; BRANCHCC OCCURS {||$C$L19||}   ; [] |635| 
     786                    ;* --------------------------------------------------------------------------*
     787                            .dwpsn  file "../Application/MAC/HighLevel/mac_security_pib.c",line 639,column 7,is_stmt,isa 1
     788 000000ca 252C              MOVS      V2, #44               ; [DPU_3_PIPE] |639|  ; [ORIG 16-BIT INS]
     789 000000cc 8006FB05          MLA       A1, V2, V3, V5        ; [DPU_3_PIPE] |639|  ; [KEEP 32-BIT INS]
     790 000000d0 1C61              ADDS      A2, V1, #1            ; [DPU_3_PIPE] |639|  ; [ORIG 16-BIT INS]
     791 000000d2 2210              MOVS      A3, #16               ; [DPU_3_PIPE] |639|  ; [ORIG 16-BIT INS]
     792 000000d4 3039              ADDS      A1, A1, #57           ; [DPU_3_PIPE] |639|  ; [ORIG 16-BIT INS]
     793                    $C$DW$42        .dwtag  DW_TAG_TI_branch
     794                            .dwattr $C$DW$42, DW_AT_low_pc(0x00)
     795                            .dwattr $C$DW$42, DW_AT_name("osal_memcpy")
     796                            .dwattr $C$DW$42, DW_AT_TI_call
     797                    
     798 000000d6 FFFEF7FF!         BL        osal_memcpy           ; [DPU_3_PIPE] |639|  ; [KEEP 32-BIT INS]
     799                            ; CALL OCCURS {osal_memcpy }     ; [] |639| 
     800                            .dwpsn  file "../Application/MAC/HighLevel/mac_security_pib.c",line 640,column 7,is_stmt,isa 1
     801 000000da 6961              LDR       A2, [V1, #20]         ; [DPU_3_PIPE] |640|  ; [ORIG 16-BIT INS]
     802 000000dc 8006FB05          MLA       A1, V2, V3, V5        ; [DPU_3_PIPE] |640|  ; [KEEP 32-BIT INS]
     803 000000e0 64C1              STR       A2, [A1, #76]         ; [DPU_3_PIPE] |640|  ; [ORIG 16-BIT INS]
     804                            .dwpsn  file "../Application/MAC/HighLevel/mac_security_pib.c",line 641,column 7,is_stmt,isa 1
     805 000000e2 E06D              B         ||$C$L27||            ; [DPU_3_PIPE] |641|  ; [ORIG 16-BIT INS]
     806                            ; BRANCH OCCURS {||$C$L27||}     ; [] |641| 
     807                    ;* --------------------------------------------------------------------------*
     808 000000e4           ||$C$L15||:    
     809                            .dwpsn  file "../Application/MAC/HighLevel/mac_security_pib.c",line 623,column 7,is_stmt,isa 1
     810 000000e4 7822              LDRB      A3, [V1, #0]          ; [DPU_3_PIPE] |623|  ; [ORIG 16-BIT INS]
     811                            .dwpsn  file "../Application/MAC/HighLevel/mac_security_pib.c",line 624,column 7,is_stmt,isa 1
     812 000000e6 7861              LDRB      A2, [V1, #1]          ; [DPU_3_PIPE] |624|  ; [ORIG 16-BIT INS]
     813                            .dwpsn  file "../Application/MAC/HighLevel/mac_security_pib.c",line 625,column 7,is_stmt,isa 1
     814 000000e8 2A02              CMP       A3, #2                ; [DPU_3_PIPE] |625|  ; [ORIG 16-BIT INS]
     815 000000ea DA30              BGE       ||$C$L19||            ; [DPU_3_PIPE] |625|  ; [ORIG 16-BIT INS]
     816                            ; BRANCHCC OCCURS {||$C$L19||}   ; [] |625| 
     817                    ;* --------------------------------------------------------------------------*
     818 000000ec 2902              CMP       A2, #2                ; [DPU_3_PIPE] |625|  ; [ORIG 16-BIT INS]
     819 000000ee DA2E              BGE       ||$C$L19||            ; [DPU_3_PIPE] |625|  ; [ORIG 16-BIT INS]
     820                            ; BRANCHCC OCCURS {||$C$L19||}   ; [] |625| 
     821                    ;* --------------------------------------------------------------------------*
     822                            .dwpsn  file "../Application/MAC/HighLevel/mac_security_pib.c",line 629,column 7,is_stmt,isa 1
     823 000000f0 4640              MOV       A1, V5                ; [DPU_3_PIPE] |629|  ; [ORIG 16-BIT INS]
     824 000000f2 232C              MOVS      A4, #44               ; [DPU_3_PIPE] |629|  ; [ORIG 16-BIT INS]
     825                            .dwpsn  file "../Application/MAC/HighLevel/mac_security_pib.c",line 630,column 7,is_stmt,isa 1
TI ARM Assembler PC v16.9.4 Sat Nov 25 18:51:50 2017

Tools Copyright (c) 1996-2017 Texas Instruments Incorporated
C:\Users\Kevin\AppData\Local\Temp\{DC18D6BA-4494-45CB-997B-AC060EFC778A} PAGE   16

     826 000000f4 0642EB01          ADD       V3, A2, A3, LSL #1    ; [DPU_3_PIPE] |630|  ; [KEEP 32-BIT INS]
     827                            .dwpsn  file "../Application/MAC/HighLevel/mac_security_pib.c",line 629,column 7,is_stmt,isa 1
     828 000000f8 1C4F              ADDS      V4, A2, #1            ; [DPU_3_PIPE] |629|  ; [ORIG 16-BIT INS]
     829 000000fa 0502FB03          MLA       V2, A4, A3, A1        ; [DPU_3_PIPE] |629|  ; [KEEP 32-BIT INS]
     830                            .dwpsn  file "../Application/MAC/HighLevel/mac_security_pib.c",line 630,column 7,is_stmt,isa 1
     831 000000fe 2202              MOVS      A3, #2                ; [DPU_3_PIPE] |630|  ; [ORIG 16-BIT INS]
     832                            .dwpsn  file "../Application/MAC/HighLevel/mac_security_pib.c",line 629,column 7,is_stmt,isa 1
     833 00000100 7038F885          STRB      V4, [V2, #56]         ; [DPU_3_PIPE] |629|  ; [KEEP 32-BIT INS]
     834                            .dwpsn  file "../Application/MAC/HighLevel/mac_security_pib.c",line 630,column 7,is_stmt,isa 1
     835 00000104 0046EB00          ADD       A1, A1, V3, LSL #1    ; [DPU_3_PIPE] |630|  ; [KEEP 32-BIT INS]
     836 00000108 70DEF500          ADD       A1, A1, #444          ; [DPU_3_PIPE] |630|  ; [KEEP 32-BIT INS]
     837                            .dwpsn  file "../Application/MAC/HighLevel/mac_security_pib.c",line 631,column 7,is_stmt,isa 1
     838 0000010c E018              B         ||$C$L17||            ; [DPU_3_PIPE] |631|  ; [ORIG 16-BIT INS]
     839                            ; BRANCH OCCURS {||$C$L17||}     ; [] |631| 
     840                    ;* --------------------------------------------------------------------------*
     841 0000010e           ||$C$L16||:    
     842                            .dwpsn  file "../Application/MAC/HighLevel/mac_security_pib.c",line 605,column 7,is_stmt,isa 1
     843 0000010e 7822              LDRB      A3, [V1, #0]          ; [DPU_3_PIPE] |605|  ; [ORIG 16-BIT INS]
     844                            .dwpsn  file "../Application/MAC/HighLevel/mac_security_pib.c",line 606,column 7,is_stmt,isa 1
     845 00000110 7861              LDRB      A2, [V1, #1]          ; [DPU_3_PIPE] |606|  ; [ORIG 16-BIT INS]
     846                            .dwpsn  file "../Application/MAC/HighLevel/mac_security_pib.c",line 607,column 7,is_stmt,isa 1
     847 00000112 2A02              CMP       A3, #2                ; [DPU_3_PIPE] |607|  ; [ORIG 16-BIT INS]
     848 00000114 DA1B              BGE       ||$C$L19||            ; [DPU_3_PIPE] |607|  ; [ORIG 16-BIT INS]
     849                            ; BRANCHCC OCCURS {||$C$L19||}   ; [] |607| 
     850                    ;* --------------------------------------------------------------------------*
     851 00000116 2932              CMP       A2, #50               ; [DPU_3_PIPE] |607|  ; [ORIG 16-BIT INS]
     852 00000118 DA19              BGE       ||$C$L19||            ; [DPU_3_PIPE] |607|  ; [ORIG 16-BIT INS]
     853                            ; BRANCHCC OCCURS {||$C$L19||}   ; [] |607| 
     854                    ;* --------------------------------------------------------------------------*
     855                            .dwpsn  file "../Application/MAC/HighLevel/mac_security_pib.c",line 615,column 7,is_stmt,isa 1
     856 0000011a 232C              MOVS      A4, #44               ; [DPU_3_PIPE] |615|  ; [ORIG 16-BIT INS]
     857 0000011c 4640              MOV       A1, V5                ; [DPU_3_PIPE] |615|  ; [ORIG 16-BIT INS]
     858 0000011e 0502FB03          MLA       V2, A4, A3, A1        ; [DPU_3_PIPE] |615|  ; [KEEP 32-BIT INS]
     859 00000122 3030F895          LDRB      A4, [V2, #48]         ; [DPU_3_PIPE] |615|  ; [KEEP 32-BIT INS]
     860 00000126 4299              CMP       A2, A4                ; [DPU_3_PIPE] |615|  ; [ORIG 16-BIT INS]
     861 00000128 BFA4              ITT       GE                    ; [DPU_3_PIPE]  ; [ORIG 16-BIT INS]
     862                            .dwpsn  file "../Application/MAC/HighLevel/mac_security_pib.c",line 617,column 9,is_stmt,isa 1
     863 0000012a 1C4B              ADDGE     A4, A2, #1            ; [DPU_3_PIPE] |617|  ; [ORIG 16-BIT INS]
     864 0000012c 3030F885          STRBGE    A4, [V2, #48]         ; [DPU_3_PIPE] |617|  ; [KEEP 32-BIT INS]
     865                            .dwpsn  file "../Application/MAC/HighLevel/mac_security_pib.c",line 619,column 7,is_stmt,isa 1
     866 00000130 2332              MOVS      A4, #50               ; [DPU_3_PIPE] |619|  ; [ORIG 16-BIT INS]
     867 00000132 1102FB03          MLA       A2, A4, A3, A2        ; [DPU_3_PIPE] |619|  ; [KEEP 32-BIT INS]
     868 00000136 0141EB01          ADD       A2, A2, A2, LSL #1    ; [DPU_3_PIPE] |619|  ; [KEEP 32-BIT INS]
     869 0000013a 2203              MOVS      A3, #3                ; [DPU_3_PIPE] |619|  ; [ORIG 16-BIT INS]
     870 0000013c 1840              ADDS      A1, A1, A2            ; [DPU_3_PIPE] |619|  ; [ORIG 16-BIT INS]
     871 0000013e 3090              ADDS      A1, A1, #144          ; [DPU_3_PIPE] |619|  ; [ORIG 16-BIT INS]
     872                    ;* --------------------------------------------------------------------------*
     873 00000140           ||$C$L17||:    
     874 00000140 1CA4              ADDS      V1, V1, #2            ; [DPU_3_PIPE] |619|  ; [ORIG 16-BIT INS]
     875                            .dwpsn  file "../Application/MAC/HighLevel/mac_security_pib.c",line 620,column 7,is_stmt,isa 1
     876 00000142 E03A              B         ||$C$L26||            ; [DPU_3_PIPE] |620|  ; [ORIG 16-BIT INS]
     877                            ; BRANCH OCCURS {||$C$L26||}     ; [] |620| 
     878                    ;* --------------------------------------------------------------------------*
     879 00000144           ||$C$L18||:    
     880                            .dwpsn  file "../Application/MAC/HighLevel/mac_security_pib.c",line 594,column 7,is_stmt,isa 1
TI ARM Assembler PC v16.9.4 Sat Nov 25 18:51:50 2017

Tools Copyright (c) 1996-2017 Texas Instruments Incorporated
C:\Users\Kevin\AppData\Local\Temp\{DC18D6BA-4494-45CB-997B-AC060EFC778A} PAGE   17

     881 00000144 7820              LDRB      A1, [V1, #0]          ; [DPU_3_PIPE] |594|  ; [ORIG 16-BIT INS]
     882                            .dwpsn  file "../Application/MAC/HighLevel/mac_security_pib.c",line 595,column 7,is_stmt,isa 1
     883 00000146 7867              LDRB      V4, [V1, #1]          ; [DPU_3_PIPE] |595|  ; [ORIG 16-BIT INS]
     884                            .dwpsn  file "../Application/MAC/HighLevel/mac_security_pib.c",line 596,column 7,is_stmt,isa 1
     885 00000148 2802              CMP       A1, #2                ; [DPU_3_PIPE] |596|  ; [ORIG 16-BIT INS]
     886 0000014a DA00              BGE       ||$C$L19||            ; [DPU_3_PIPE] |596|  ; [ORIG 16-BIT INS]
     887                            ; BRANCHCC OCCURS {||$C$L19||}   ; [] |596| 
     888                    ;* --------------------------------------------------------------------------*
     889 0000014c B117              CBZ       V4, ||$C$L20||        ; []  ; [ORIG 16-BIT INS]
     890                            ; BRANCHCC OCCURS {||$C$L20||}   ; [] |596| 
     891                    ;* --------------------------------------------------------------------------*
     892 0000014e           ||$C$L19||:    
     893                            .dwcfi  remember_state
     894                            .dwpsn  file "../Application/MAC/HighLevel/mac_security_pib.c",line 598,column 9,is_stmt,isa 1
     895 0000014e 20E8              MOVS      A1, #232              ; [DPU_3_PIPE] |598|  ; [ORIG 16-BIT INS]
     896                    $C$DW$43        .dwtag  DW_TAG_TI_branch
     897                            .dwattr $C$DW$43, DW_AT_low_pc(0x00)
     898                            .dwattr $C$DW$43, DW_AT_TI_return
     899                    
     900 00000150 81F0E8BD          POP       {V1, V2, V3, V4, V5, PC} ; [DPU_3_PIPE]  ; [KEEP 32-BIT INS]
     901                            .dwcfi  cfa_offset, 0
     902                            ; BRANCH OCCURS                  ; [] 
     903                            .dwcfi  restore_reg, 8
     904                            .dwcfi  restore_reg, 7
     905                            .dwcfi  restore_reg, 6
     906                            .dwcfi  restore_reg, 5
     907                            .dwcfi  restore_reg, 4
     908                            .dwcfi  restore_state
     909                    ;* --------------------------------------------------------------------------*
     910 00000154           ||$C$L20||:    
     911                            .dwpsn  file "../Application/MAC/HighLevel/mac_security_pib.c",line 600,column 7,is_stmt,isa 1
     912 00000154 4641              MOV       A2, V5                ; [DPU_3_PIPE] |600|  ; [ORIG 16-BIT INS]
     913 00000156 222C              MOVS      A3, #44               ; [DPU_3_PIPE] |600|  ; [ORIG 16-BIT INS]
     914                            .dwpsn  file "../Application/MAC/HighLevel/mac_security_pib.c",line 601,column 7,is_stmt,isa 1
     915 00000158 19C5              ADDS      V2, A1, V4            ; [DPU_3_PIPE] |601|  ; [ORIG 16-BIT INS]
     916                            .dwpsn  file "../Application/MAC/HighLevel/mac_security_pib.c",line 600,column 7,is_stmt,isa 1
     917 0000015a 1C7E              ADDS      V3, V4, #1            ; [DPU_3_PIPE] |600|  ; [ORIG 16-BIT INS]
     918 0000015c 1300FB02          MLA       A4, A3, A1, A2        ; [DPU_3_PIPE] |600|  ; [KEEP 32-BIT INS]
     919                            .dwpsn  file "../Application/MAC/HighLevel/mac_security_pib.c",line 601,column 7,is_stmt,isa 1
     920 00000160 006A              LSLS      A3, V2, #1            ; [DPU_3_PIPE] |601|  ; [ORIG 16-BIT INS]
     921                            .dwpsn  file "../Application/MAC/HighLevel/mac_security_pib.c",line 600,column 7,is_stmt,isa 1
     922 00000162 6028F883          STRB      V3, [A4, #40]         ; [DPU_3_PIPE] |600|  ; [KEEP 32-BIT INS]
     923                            .dwpsn  file "../Application/MAC/HighLevel/mac_security_pib.c",line 601,column 7,is_stmt,isa 1
     924 00000166 02C5EB02          ADD       A3, A3, V2, LSL #3    ; [DPU_3_PIPE] |601|  ; [KEEP 32-BIT INS]
     925 0000016a 1888              ADDS      A1, A2, A3            ; [DPU_3_PIPE] |601|  ; [ORIG 16-BIT INS]
     926 0000016c 220A              MOVS      A3, #10               ; [DPU_3_PIPE] |601|  ; [ORIG 16-BIT INS]
     927 0000016e 307C              ADDS      A1, A1, #124          ; [DPU_3_PIPE] |601|  ; [ORIG 16-BIT INS]
     928                            .dwpsn  file "../Application/MAC/HighLevel/mac_security_pib.c",line 602,column 7,is_stmt,isa 1
     929 00000170 E7E6              B         ||$C$L17||            ; [DPU_3_PIPE] |602|  ; [ORIG 16-BIT INS]
     930                            ; BRANCH OCCURS {||$C$L17||}     ; [] |602| 
     931                    ;* --------------------------------------------------------------------------*
     932 00000172           ||$C$L21||:    
     933 00000172 B32C              CBZ       V1, ||$C$L27||        ; []  ; [ORIG 16-BIT INS]
     934                            .dwpsn  file "../Application/MAC/HighLevel/mac_security_pib.c",line 654,column 7,is_stmt,isa 1
     935                            ; BRANCHCC OCCURS {||$C$L27||}   ; [] |654| 
TI ARM Assembler PC v16.9.4 Sat Nov 25 18:51:50 2017

Tools Copyright (c) 1996-2017 Texas Instruments Incorporated
C:\Users\Kevin\AppData\Local\Temp\{DC18D6BA-4494-45CB-997B-AC060EFC778A} PAGE   18

     936                    ;* --------------------------------------------------------------------------*
     937                            .dwpsn  file "../Application/MAC/HighLevel/mac_security_pib.c",line 659,column 9,is_stmt,isa 1
     938 00000174 4618              MOV       A1, A4                ; [DPU_3_PIPE] |659|  ; [ORIG 16-BIT INS]
     939 00000176 2208              MOVS      A3, #8                ; [DPU_3_PIPE] |659|  ; [ORIG 16-BIT INS]
     940 00000178 E01F              B         ||$C$L26||            ; [DPU_3_PIPE] |659|  ; [ORIG 16-BIT INS]
     941                            ; BRANCH OCCURS {||$C$L26||}     ; [] |659| 
     942                    ;* --------------------------------------------------------------------------*
     943 0000017a           ||$C$L22||:    
     944 0000017a B30C              CBZ       V1, ||$C$L27||        ; []  ; [ORIG 16-BIT INS]
     945                            .dwpsn  file "../Application/MAC/HighLevel/mac_security_pib.c",line 644,column 7,is_stmt,isa 1
     946                            ; BRANCHCC OCCURS {||$C$L27||}   ; [] |644| 
     947                    ;* --------------------------------------------------------------------------*
     948                            .dwpsn  file "../Application/MAC/HighLevel/mac_security_pib.c",line 649,column 9,is_stmt,isa 1
     949 0000017c 4610              MOV       A1, A3                ; [DPU_3_PIPE] |649|  ; [ORIG 16-BIT INS]
     950 0000017e 6296F44F          MOV       A3, #1200             ; [DPU_3_PIPE] |649|  ; [KEEP 32-BIT INS]
     951 00000182 E01A              B         ||$C$L26||            ; [DPU_3_PIPE] |649|  ; [ORIG 16-BIT INS]
     952                            ; BRANCH OCCURS {||$C$L26||}     ; [] |649| 
     953                    ;* --------------------------------------------------------------------------*
     954 00000184           ||$C$L23||:    
     955 00000184 B9B4              CBNZ      V1, ||$C$L25||        ; []  ; [ORIG 16-BIT INS]
     956                            .dwpsn  file "../Application/MAC/HighLevel/mac_security_pib.c",line 570,column 7,is_stmt,isa 1
     957                            ; BRANCHCC OCCURS {||$C$L25||}   ; [] |570| 
     958                    ;* --------------------------------------------------------------------------*
     959 00000186 4640              MOV       A1, V5                ; [DPU_3_PIPE]  ; [ORIG 16-BIT INS]
     960 00000188 047CF100          ADD       V1, A1, #124          ; [DPU_3_PIPE]  ; [KEEP 32-BIT INS]
     961 0000018c 0208F1A0          SUB       A3, A1, #8            ; [DPU_3_PIPE]  ; [KEEP 32-BIT INS]
     962 00000190 0390F100          ADD       A4, A1, #144          ; [DPU_3_PIPE]  ; [KEEP 32-BIT INS]
     963 00000194 71DEF500          ADD       A2, A1, #444          ; [DPU_3_PIPE]  ; [KEEP 32-BIT INS]
     964                            .dwpsn  file "../Application/MAC/HighLevel/mac_security_pib.c",line 575,column 27,is_stmt,isa 
     965 00000198 2002              MOVS      A1, #2                ; [DPU_3_PIPE] |575|  ; [ORIG 16-BIT INS]
     966                    ;* --------------------------------------------------------------------------*
     967                    ;*   BEGIN LOOP ||$C$L24||
     968                    ;*
     969                    ;*   Loop source line                : 575
     970                    ;*   Loop closing brace source line  : 584
     971                    ;*   Known Minimum Trip Count        : 2
     972                    ;*   Known Maximum Trip Count        : 2
     973                    ;*   Known Max Trip Count Factor     : 2
     974                    ;* --------------------------------------------------------------------------*
     975 0000019a           ||$C$L24||:    
     976                            .dwpsn  file "../Application/MAC/HighLevel/mac_security_pib.c",line 581,column 11,is_stmt,isa 
     977 0000019a 4F2CF842          STR       V1, [A3, #44]!        ; [DPU_3_PIPE] |581|  ; [KEEP 32-BIT INS]
     978                            .dwpsn  file "../Application/MAC/HighLevel/mac_security_pib.c",line 582,column 11,is_stmt,isa 
     979 0000019e 6093              STR       A4, [A3, #8]          ; [DPU_3_PIPE] |582|  ; [ORIG 16-BIT INS]
     980                            .dwpsn  file "../Application/MAC/HighLevel/mac_security_pib.c",line 575,column 27,is_stmt,isa 
     981 000001a0 1E40              SUBS      A1, A1, #1            ; [DPU_3_PIPE] |575|  ; [ORIG 16-BIT INS]
     982                            .dwpsn  file "../Application/MAC/HighLevel/mac_security_pib.c",line 583,column 11,is_stmt,isa 
     983 000001a2 6111              STR       A2, [A3, #16]         ; [DPU_3_PIPE] |583|  ; [ORIG 16-BIT INS]
     984                            .dwpsn  file "../Application/MAC/HighLevel/mac_security_pib.c",line 575,column 27,is_stmt,isa 
     985 000001a4 040AF104          ADD       V1, V1, #10           ; [DPU_3_PIPE] |575|  ; [KEEP 32-BIT INS]
     986 000001a8 0396F103          ADD       A4, A4, #150          ; [DPU_3_PIPE] |575|  ; [KEEP 32-BIT INS]
     987 000001ac 0104F101          ADD       A2, A2, #4            ; [DPU_3_PIPE] |575|  ; [KEEP 32-BIT INS]
     988 000001b0 D1F3              BNE       ||$C$L24||            ; [DPU_3_PIPE] |575|  ; [ORIG 16-BIT INS]
     989                            ; BRANCHCC OCCURS {||$C$L24||}   ; [] |575| 
     990                    ;* --------------------------------------------------------------------------*
TI ARM Assembler PC v16.9.4 Sat Nov 25 18:51:50 2017

Tools Copyright (c) 1996-2017 Texas Instruments Incorporated
C:\Users\Kevin\AppData\Local\Temp\{DC18D6BA-4494-45CB-997B-AC060EFC778A} PAGE   19

     991 000001b2 E005              B         ||$C$L27||            ; [DPU_3_PIPE] |575|  ; [ORIG 16-BIT INS]
     992                            ; BRANCH OCCURS {||$C$L27||}     ; [] |575| 
     993                    ;* --------------------------------------------------------------------------*
     994 000001b4           ||$C$L25||:    
     995                            .dwpsn  file "../Application/MAC/HighLevel/mac_security_pib.c",line 588,column 9,is_stmt,isa 1
     996 000001b4 4640              MOV       A1, V5                ; [DPU_3_PIPE] |588|  ; [ORIG 16-BIT INS]
     997 000001b6 2258              MOVS      A3, #88               ; [DPU_3_PIPE] |588|  ; [ORIG 16-BIT INS]
     998 000001b8 3024              ADDS      A1, A1, #36           ; [DPU_3_PIPE]  ; [ORIG 16-BIT INS]
     999                    ;* --------------------------------------------------------------------------*
    1000 000001ba           ||$C$L26||:    
    1001 000001ba 4621              MOV       A2, V1                ; [DPU_3_PIPE] |588|  ; [ORIG 16-BIT INS]
    1002                    $C$DW$44        .dwtag  DW_TAG_TI_branch
    1003                            .dwattr $C$DW$44, DW_AT_low_pc(0x00)
    1004                            .dwattr $C$DW$44, DW_AT_name("osal_memcpy")
    1005                            .dwattr $C$DW$44, DW_AT_TI_call
    1006                    
    1007 000001bc FFFEF7FF!         BL        osal_memcpy           ; [DPU_3_PIPE] |588|  ; [KEEP 32-BIT INS]
    1008                            ; CALL OCCURS {osal_memcpy }     ; [] |588| 
    1009                    ;* --------------------------------------------------------------------------*
    1010 000001c0           ||$C$L27||:    
    1011                            .dwpsn  file "../Application/MAC/HighLevel/mac_security_pib.c",line 591,column 7,is_stmt,isa 1
    1012 000001c0 2000              MOVS      A1, #0                ; [DPU_3_PIPE] |591|  ; [ORIG 16-BIT INS]
    1013                    ;* --------------------------------------------------------------------------*
    1014                    ||$C$L28||:    
    1015                    $C$DW$45        .dwtag  DW_TAG_TI_branch
    1016                            .dwattr $C$DW$45, DW_AT_low_pc(0x00)
    1017                            .dwattr $C$DW$45, DW_AT_TI_return
    1018                    
    1019 000001c2 81F0E8BD          POP       {V1, V2, V3, V4, V5, PC} ; [DPU_3_PIPE]  ; [KEEP 32-BIT INS]
    1020                            .dwcfi  cfa_offset, 0
    1021                            ; BRANCH OCCURS                  ; [] 
    1022                            .dwattr $C$DW$23, DW_AT_TI_end_file("../Application/MAC/HighLevel/mac_security_pib.c")
    1023                            .dwattr $C$DW$23, DW_AT_TI_end_line(0x2c7)
    1024                            .dwattr $C$DW$23, DW_AT_TI_end_column(0x01)
    1025                            .dwendentry
    1026                            .dwendtag $C$DW$23
    1027                    
    1028 00000000                   .sect   ".text:MAC_MlmeGetSecurityReqSize"
    1029                            .clink
    1030                            .thumbfunc MAC_MlmeGetSecurityReqSize
    1031 00000000                   .thumb
    1032                            .global MAC_MlmeGetSecurityReqSize
    1033                    
    1034                    $C$DW$46        .dwtag  DW_TAG_subprogram
    1035                            .dwattr $C$DW$46, DW_AT_name("MAC_MlmeGetSecurityReqSize")
    1036                            .dwattr $C$DW$46, DW_AT_low_pc(MAC_MlmeGetSecurityReqSize)
    1037                            .dwattr $C$DW$46, DW_AT_high_pc(0x00)
    1038                            .dwattr $C$DW$46, DW_AT_TI_symbol_name("MAC_MlmeGetSecurityReqSize")
    1039                            .dwattr $C$DW$46, DW_AT_external
    1040                            .dwattr $C$DW$46, DW_AT_type(*$C$DW$T$19)
    1041                            .dwattr $C$DW$46, DW_AT_TI_begin_file("../Application/MAC/HighLevel/mac_security_pib.c")
    1042                            .dwattr $C$DW$46, DW_AT_TI_begin_line(0x1eb)
    1043                            .dwattr $C$DW$46, DW_AT_TI_begin_column(0x07)
    1044                            .dwattr $C$DW$46, DW_AT_decl_file("../Application/MAC/HighLevel/mac_security_pib.c")
    1045                            .dwattr $C$DW$46, DW_AT_decl_line(0x1eb)
TI ARM Assembler PC v16.9.4 Sat Nov 25 18:51:50 2017

Tools Copyright (c) 1996-2017 Texas Instruments Incorporated
C:\Users\Kevin\AppData\Local\Temp\{DC18D6BA-4494-45CB-997B-AC060EFC778A} PAGE   20

    1046                            .dwattr $C$DW$46, DW_AT_decl_column(0x07)
    1047                            .dwattr $C$DW$46, DW_AT_TI_max_frame_size(0x08)
    1048                            .dwpsn  file "../Application/MAC/HighLevel/mac_security_pib.c",line 492,column 1,is_stmt,addre
    1049                    
    1050                            .dwfde $C$DW$CIE, MAC_MlmeGetSecurityReqSize
    1051                    $C$DW$47        .dwtag  DW_TAG_formal_parameter
    1052                            .dwattr $C$DW$47, DW_AT_name("pibAttribute")
    1053                            .dwattr $C$DW$47, DW_AT_TI_symbol_name("pibAttribute")
    1054                            .dwattr $C$DW$47, DW_AT_type(*$C$DW$T$19)
    1055                            .dwattr $C$DW$47, DW_AT_location[DW_OP_reg0]
    1056                    
    1057                    
    1058                    ;*****************************************************************************
    1059                    ;* FUNCTION NAME: MAC_MlmeGetSecurityReqSize                                 *
    1060                    ;*                                                                           *
    1061                    ;*   Regs Modified     : A1,A2,A4,V9,SP,LR,SR                                *
    1062                    ;*   Regs Used         : A1,A2,A4,V9,SP,LR,SR                                *
    1063                    ;*   Local Frame Size  : 0 Args + 0 Auto + 4 Save = 4 byte                   *
    1064                    ;*****************************************************************************
    1065                    MAC_MlmeGetSecurityReqSize:
    1066                    ;* --------------------------------------------------------------------------*
    1067                    ;* A2    assigned to pibAttribute
    1068                    $C$DW$48        .dwtag  DW_TAG_variable
    1069                            .dwattr $C$DW$48, DW_AT_name("pibAttribute")
    1070                            .dwattr $C$DW$48, DW_AT_TI_symbol_name("pibAttribute")
    1071                            .dwattr $C$DW$48, DW_AT_type(*$C$DW$T$668)
    1072                            .dwattr $C$DW$48, DW_AT_location[DW_OP_reg1]
    1073                    
    1074                    ;* A1    assigned to len
    1075                    $C$DW$49        .dwtag  DW_TAG_variable
    1076                            .dwattr $C$DW$49, DW_AT_name("len")
    1077                            .dwattr $C$DW$49, DW_AT_TI_symbol_name("len")
    1078                            .dwattr $C$DW$49, DW_AT_type(*$C$DW$T$10)
    1079                            .dwattr $C$DW$49, DW_AT_location[DW_OP_reg0]
    1080                    
    1081                    ;* A1    assigned to i
    1082                    $C$DW$50        .dwtag  DW_TAG_variable
    1083                            .dwattr $C$DW$50, DW_AT_name("i")
    1084                            .dwattr $C$DW$50, DW_AT_TI_symbol_name("i")
    1085                            .dwattr $C$DW$50, DW_AT_type(*$C$DW$T$10)
    1086                            .dwattr $C$DW$50, DW_AT_location[DW_OP_reg0]
    1087                    
    1088                            .dwcfi  cfa_offset, 0
    1089 00000000 4601              MOV       A2, A1                ; [DPU_3_PIPE] |492|  ; [ORIG 16-BIT INS]
    1090 00000002 B508              PUSH      {A4, LR}              ; [DPU_3_PIPE]  ; [ORIG 16-BIT INS]
    1091                            .dwcfi  cfa_offset, 8
    1092                            .dwcfi  save_reg_to_mem, 14, -4
    1093                            .dwcfi  save_reg_to_mem, 3, -8
    1094                            .dwpsn  file "../Application/MAC/HighLevel/mac_security_pib.c",line 496,column 3,is_stmt,isa 1
    1095 00000004 38D0              SUBS      A1, A1, #208          ; [DPU_3_PIPE] |496|  ; [ORIG 16-BIT INS]
    1096 00000006 D01B              BEQ       ||$C$L33||            ; [DPU_3_PIPE] |496|  ; [ORIG 16-BIT INS]
    1097                            ; BRANCHCC OCCURS {||$C$L33||}   ; [] |496| 
    1098                    ;* --------------------------------------------------------------------------*
    1099 00000008 1E40              SUBS      A1, A1, #1            ; [DPU_3_PIPE] |496|  ; [ORIG 16-BIT INS]
    1100 0000000a D011              BEQ       ||$C$L29||            ; [DPU_3_PIPE] |496|  ; [ORIG 16-BIT INS]
TI ARM Assembler PC v16.9.4 Sat Nov 25 18:51:50 2017

Tools Copyright (c) 1996-2017 Texas Instruments Incorporated
C:\Users\Kevin\AppData\Local\Temp\{DC18D6BA-4494-45CB-997B-AC060EFC778A} PAGE   21

    1101                            ; BRANCHCC OCCURS {||$C$L29||}   ; [] |496| 
    1102                    ;* --------------------------------------------------------------------------*
    1103 0000000c 1E40              SUBS      A1, A1, #1            ; [DPU_3_PIPE] |496|  ; [ORIG 16-BIT INS]
    1104 0000000e D015              BEQ       ||$C$L32||            ; [DPU_3_PIPE] |496|  ; [ORIG 16-BIT INS]
    1105                            ; BRANCHCC OCCURS {||$C$L32||}   ; [] |496| 
    1106                    ;* --------------------------------------------------------------------------*
    1107 00000010 1E40              SUBS      A1, A1, #1            ; [DPU_3_PIPE] |496|  ; [ORIG 16-BIT INS]
    1108 00000012 D011              BEQ       ||$C$L31||            ; [DPU_3_PIPE] |496|  ; [ORIG 16-BIT INS]
    1109                            ; BRANCHCC OCCURS {||$C$L31||}   ; [] |496| 
    1110                    ;* --------------------------------------------------------------------------*
    1111 00000014 1E40              SUBS      A1, A1, #1            ; [DPU_3_PIPE] |496|  ; [ORIG 16-BIT INS]
    1112 00000016 D00D              BEQ       ||$C$L30||            ; [DPU_3_PIPE] |496|  ; [ORIG 16-BIT INS]
    1113                            ; BRANCHCC OCCURS {||$C$L30||}   ; [] |496| 
    1114                    ;* --------------------------------------------------------------------------*
    1115 00000018 1E40              SUBS      A1, A1, #1            ; [DPU_3_PIPE] |496|  ; [ORIG 16-BIT INS]
    1116 0000001a D009              BEQ       ||$C$L29||            ; [DPU_3_PIPE] |496|  ; [ORIG 16-BIT INS]
    1117                            ; BRANCHCC OCCURS {||$C$L29||}   ; [] |496| 
    1118                    ;* --------------------------------------------------------------------------*
    1119                            .dwcfi  remember_state
    1120                            .dwpsn  file "../Application/MAC/HighLevel/mac_security_pib.c",line 525,column 9,is_stmt,isa 1
    1121 0000001c 4608              MOV       A1, A2                ; [DPU_3_PIPE] |525|  ; [ORIG 16-BIT INS]
    1122                    $C$DW$51        .dwtag  DW_TAG_TI_branch
    1123                            .dwattr $C$DW$51, DW_AT_low_pc(0x00)
    1124                            .dwattr $C$DW$51, DW_AT_name("macSecurityPibIndex")
    1125                            .dwattr $C$DW$51, DW_AT_TI_call
    1126                    
    1127 0000001e FFFEF7FF!         BL        macSecurityPibIndex   ; [DPU_3_PIPE] |525|  ; [KEEP 32-BIT INS]
    1128                            ; CALL OCCURS {macSecurityPibIndex }  ; [] |525| 
    1129 00000022 280B              CMP       A1, #11               ; [DPU_3_PIPE] |525|  ; [ORIG 16-BIT INS]
    1130 00000024 BF0E              ITEE      EQ                    ; [DPU_3_PIPE]  ; [ORIG 16-BIT INS]
    1131                            .dwpsn  file "../Application/MAC/HighLevel/mac_security_pib.c",line 493,column 13,is_stmt,isa 
    1132 00000026 2000              MOVEQ     A1, #0                ; [DPU_3_PIPE] |493|  ; [ORIG 16-BIT INS]
    1133                            .dwpsn  file "../Application/MAC/HighLevel/mac_security_pib.c",line 527,column 11,is_stmt,isa 
    1134 00000028 4906              LDRNE     A2, $C$CON18          ; [DPU_3_PIPE] |527|  ; [ORIG 16-BIT INS]
    1135 0000002a 0020F811          LDRBNE    A1, [A2, +A1, LSL #2] ; [DPU_3_PIPE] |527|  ; [KEEP 32-BIT INS]
    1136                    $C$DW$52        .dwtag  DW_TAG_TI_branch
    1137                            .dwattr $C$DW$52, DW_AT_low_pc(0x00)
    1138                            .dwattr $C$DW$52, DW_AT_TI_return
    1139                    
    1140 0000002e BD08              POP       {A4, PC}              ; [DPU_3_PIPE]  ; [ORIG 16-BIT INS]
    1141                            .dwcfi  cfa_offset, 0
    1142                            ; BRANCH OCCURS                  ; [] 
    1143                            .dwcfi  restore_reg, 3
    1144                            .dwcfi  restore_state
    1145                    ;* --------------------------------------------------------------------------*
    1146 00000030           ||$C$L29||:    
    1147                            .dwcfi  remember_state
    1148                            .dwpsn  file "../Application/MAC/HighLevel/mac_security_pib.c",line 503,column 7,is_stmt,isa 1
    1149 00000030 2005              MOVS      A1, #5                ; [DPU_3_PIPE] |503|  ; [ORIG 16-BIT INS]
    1150                    $C$DW$53        .dwtag  DW_TAG_TI_branch
    1151                            .dwattr $C$DW$53, DW_AT_low_pc(0x00)
    1152                            .dwattr $C$DW$53, DW_AT_TI_return
    1153                    
    1154 00000032 BD08              POP       {A4, PC}              ; [DPU_3_PIPE]  ; [ORIG 16-BIT INS]
    1155                            .dwcfi  cfa_offset, 0
TI ARM Assembler PC v16.9.4 Sat Nov 25 18:51:50 2017

Tools Copyright (c) 1996-2017 Texas Instruments Incorporated
C:\Users\Kevin\AppData\Local\Temp\{DC18D6BA-4494-45CB-997B-AC060EFC778A} PAGE   22

    1156                            ; BRANCH OCCURS                  ; [] 
    1157                            .dwcfi  restore_reg, 3
    1158                            .dwcfi  restore_state
    1159                    ;* --------------------------------------------------------------------------*
    1160 00000034           ||$C$L30||:    
    1161                            .dwcfi  remember_state
    1162                            .dwpsn  file "../Application/MAC/HighLevel/mac_security_pib.c",line 515,column 7,is_stmt,isa 1
    1163 00000034 201C              MOVS      A1, #28               ; [DPU_3_PIPE] |515|  ; [ORIG 16-BIT INS]
    1164                    $C$DW$54        .dwtag  DW_TAG_TI_branch
    1165                            .dwattr $C$DW$54, DW_AT_low_pc(0x00)
    1166                            .dwattr $C$DW$54, DW_AT_TI_return
    1167                    
    1168 00000036 BD08              POP       {A4, PC}              ; [DPU_3_PIPE]  ; [ORIG 16-BIT INS]
    1169                            .dwcfi  cfa_offset, 0
    1170                            ; BRANCH OCCURS                  ; [] 
    1171                            .dwcfi  restore_reg, 3
    1172                            .dwcfi  restore_state
    1173                    ;* --------------------------------------------------------------------------*
    1174 00000038           ||$C$L31||:    
    1175                            .dwcfi  remember_state
    1176                            .dwpsn  file "../Application/MAC/HighLevel/mac_security_pib.c",line 511,column 7,is_stmt,isa 1
    1177 00000038 2018              MOVS      A1, #24               ; [DPU_3_PIPE] |511|  ; [ORIG 16-BIT INS]
    1178                    $C$DW$55        .dwtag  DW_TAG_TI_branch
    1179                            .dwattr $C$DW$55, DW_AT_low_pc(0x00)
    1180                            .dwattr $C$DW$55, DW_AT_TI_return
    1181                    
    1182 0000003a BD08              POP       {A4, PC}              ; [DPU_3_PIPE]  ; [ORIG 16-BIT INS]
    1183                            .dwcfi  cfa_offset, 0
    1184                            ; BRANCH OCCURS                  ; [] 
    1185                            .dwcfi  restore_reg, 3
    1186                            .dwcfi  restore_state
    1187                    ;* --------------------------------------------------------------------------*
    1188 0000003c           ||$C$L32||:    
    1189                            .dwcfi  remember_state
    1190                            .dwpsn  file "../Application/MAC/HighLevel/mac_security_pib.c",line 507,column 7,is_stmt,isa 1
    1191 0000003c 2004              MOVS      A1, #4                ; [DPU_3_PIPE] |507|  ; [ORIG 16-BIT INS]
    1192                    $C$DW$56        .dwtag  DW_TAG_TI_branch
    1193                            .dwattr $C$DW$56, DW_AT_low_pc(0x00)
    1194                            .dwattr $C$DW$56, DW_AT_TI_return
    1195                    
    1196 0000003e BD08              POP       {A4, PC}              ; [DPU_3_PIPE]  ; [ORIG 16-BIT INS]
    1197                            .dwcfi  cfa_offset, 0
    1198                            ; BRANCH OCCURS                  ; [] 
    1199                            .dwcfi  restore_reg, 3
    1200                            .dwcfi  restore_state
    1201                    ;* --------------------------------------------------------------------------*
    1202 00000040           ||$C$L33||:    
    1203                            .dwpsn  file "../Application/MAC/HighLevel/mac_security_pib.c",line 499,column 7,is_stmt,isa 1
    1204 00000040 200C              MOVS      A1, #12               ; [DPU_3_PIPE] |499|  ; [ORIG 16-BIT INS]
    1205                    ;* --------------------------------------------------------------------------*
    1206                    $C$DW$57        .dwtag  DW_TAG_TI_branch
    1207                            .dwattr $C$DW$57, DW_AT_low_pc(0x00)
    1208                            .dwattr $C$DW$57, DW_AT_TI_return
    1209                    
    1210 00000042 BD08              POP       {A4, PC}              ; [DPU_3_PIPE]  ; [ORIG 16-BIT INS]
TI ARM Assembler PC v16.9.4 Sat Nov 25 18:51:50 2017

Tools Copyright (c) 1996-2017 Texas Instruments Incorporated
C:\Users\Kevin\AppData\Local\Temp\{DC18D6BA-4494-45CB-997B-AC060EFC778A} PAGE   23

    1211                            .dwcfi  cfa_offset, 0
    1212                            ; BRANCH OCCURS                  ; [] 
    1213                            .dwattr $C$DW$46, DW_AT_TI_end_file("../Application/MAC/HighLevel/mac_security_pib.c")
    1214                            .dwattr $C$DW$46, DW_AT_TI_end_line(0x216)
    1215                            .dwattr $C$DW$46, DW_AT_TI_end_column(0x01)
    1216                            .dwendentry
    1217                            .dwendtag $C$DW$46
    1218                    
    1219 00000000                   .sect   ".text:MAC_MlmeGetSecurityReq"
    1220                            .clink
    1221                            .thumbfunc MAC_MlmeGetSecurityReq
    1222 00000000                   .thumb
    1223                            .global MAC_MlmeGetSecurityReq
    1224                    
    1225                    $C$DW$58        .dwtag  DW_TAG_subprogram
    1226                            .dwattr $C$DW$58, DW_AT_name("MAC_MlmeGetSecurityReq")
    1227                            .dwattr $C$DW$58, DW_AT_low_pc(MAC_MlmeGetSecurityReq)
    1228                            .dwattr $C$DW$58, DW_AT_high_pc(0x00)
    1229                            .dwattr $C$DW$58, DW_AT_TI_symbol_name("MAC_MlmeGetSecurityReq")
    1230                            .dwattr $C$DW$58, DW_AT_external
    1231                            .dwattr $C$DW$58, DW_AT_type(*$C$DW$T$19)
    1232                            .dwattr $C$DW$58, DW_AT_TI_begin_file("../Application/MAC/HighLevel/mac_security_pib.c")
    1233                            .dwattr $C$DW$58, DW_AT_TI_begin_line(0x15e)
    1234                            .dwattr $C$DW$58, DW_AT_TI_begin_column(0x07)
    1235                            .dwattr $C$DW$58, DW_AT_decl_file("../Application/MAC/HighLevel/mac_security_pib.c")
    1236                            .dwattr $C$DW$58, DW_AT_decl_line(0x15e)
    1237                            .dwattr $C$DW$58, DW_AT_decl_column(0x07)
    1238                            .dwattr $C$DW$58, DW_AT_TI_max_frame_size(0x18)
    1239                            .dwpsn  file "../Application/MAC/HighLevel/mac_security_pib.c",line 351,column 1,is_stmt,addre
    1240                    
    1241                            .dwfde $C$DW$CIE, MAC_MlmeGetSecurityReq
    1242                    $C$DW$59        .dwtag  DW_TAG_formal_parameter
    1243                            .dwattr $C$DW$59, DW_AT_name("pibAttribute")
    1244                            .dwattr $C$DW$59, DW_AT_TI_symbol_name("pibAttribute")
    1245                            .dwattr $C$DW$59, DW_AT_type(*$C$DW$T$19)
    1246                            .dwattr $C$DW$59, DW_AT_location[DW_OP_reg0]
    1247                    
    1248                    $C$DW$60        .dwtag  DW_TAG_formal_parameter
    1249                            .dwattr $C$DW$60, DW_AT_name("pValue")
    1250                            .dwattr $C$DW$60, DW_AT_TI_symbol_name("pValue")
    1251                            .dwattr $C$DW$60, DW_AT_type(*$C$DW$T$3)
    1252                            .dwattr $C$DW$60, DW_AT_location[DW_OP_reg1]
    1253                    
    1254                    
    1255                    ;*****************************************************************************
    1256                    ;* FUNCTION NAME: MAC_MlmeGetSecurityReq                                     *
    1257                    ;*                                                                           *
    1258                    ;*   Regs Modified     : A1,A2,A3,A4,V1,V2,V3,V4,V9,SP,LR,SR                 *
    1259                    ;*   Regs Used         : A1,A2,A3,A4,V1,V2,V3,V4,V9,SP,LR,SR                 *
    1260                    ;*   Local Frame Size  : 0 Args + 0 Auto + 20 Save = 20 byte                 *
    1261                    ;*****************************************************************************
    1262                    MAC_MlmeGetSecurityReq:
    1263                    ;* --------------------------------------------------------------------------*
    1264                    ;* A3    assigned to $O$C1
    1265                    ;* A1    assigned to $O$C2
TI ARM Assembler PC v16.9.4 Sat Nov 25 18:51:50 2017

Tools Copyright (c) 1996-2017 Texas Instruments Incorporated
C:\Users\Kevin\AppData\Local\Temp\{DC18D6BA-4494-45CB-997B-AC060EFC778A} PAGE   24

    1266                    ;* A2    assigned to $O$C3
    1267                    ;* A1    assigned to $O$C4
    1268                    ;* A3    assigned to $O$C5
    1269                    ;* A2    assigned to $O$C6
    1270                    ;* A4    assigned to $O$C7
    1271                    ;* A3    assigned to $O$C8
    1272                    ;* A2    assigned to $O$C9
    1273                    ;* V4    assigned to $O$C10
    1274                    ;* V3    assigned to $O$C11
    1275                    ;* A2    assigned to $O$C12
    1276                    ;* A3    assigned to $O$C13
    1277                    ;* A1    assigned to $O$C14
    1278                    ;* A2    assigned to $O$K24
    1279                    ;* A2    assigned to $O$K24
    1280                    ;* A2    assigned to $O$K24
    1281                    ;* A2    assigned to pibAttribute
    1282                    $C$DW$61        .dwtag  DW_TAG_variable
    1283                            .dwattr $C$DW$61, DW_AT_name("pibAttribute")
    1284                            .dwattr $C$DW$61, DW_AT_TI_symbol_name("pibAttribute")
    1285                            .dwattr $C$DW$61, DW_AT_type(*$C$DW$T$668)
    1286                            .dwattr $C$DW$61, DW_AT_location[DW_OP_reg1]
    1287                    
    1288                    ;* V1    assigned to pValue
    1289                    $C$DW$62        .dwtag  DW_TAG_variable
    1290                            .dwattr $C$DW$62, DW_AT_name("pValue")
    1291                            .dwattr $C$DW$62, DW_AT_TI_symbol_name("pValue")
    1292                            .dwattr $C$DW$62, DW_AT_type(*$C$DW$T$629)
    1293                            .dwattr $C$DW$62, DW_AT_location[DW_OP_reg4]
    1294                    
    1295                    ;* V2    assigned to i
    1296                    $C$DW$63        .dwtag  DW_TAG_variable
    1297                            .dwattr $C$DW$63, DW_AT_name("i")
    1298                            .dwattr $C$DW$63, DW_AT_TI_symbol_name("i")
    1299                            .dwattr $C$DW$63, DW_AT_type(*$C$DW$T$10)
    1300                            .dwattr $C$DW$63, DW_AT_location[DW_OP_reg5]
    1301                    
    1302                    ;* V3    assigned to keyIndex
    1303                    $C$DW$64        .dwtag  DW_TAG_variable
    1304                            .dwattr $C$DW$64, DW_AT_name("keyIndex")
    1305                            .dwattr $C$DW$64, DW_AT_TI_symbol_name("keyIndex")
    1306                            .dwattr $C$DW$64, DW_AT_type(*$C$DW$T$10)
    1307                            .dwattr $C$DW$64, DW_AT_location[DW_OP_reg6]
    1308                    
    1309                    ;* V3    assigned to intState
    1310                    $C$DW$65        .dwtag  DW_TAG_variable
    1311                            .dwattr $C$DW$65, DW_AT_name("intState")
    1312                            .dwattr $C$DW$65, DW_AT_TI_symbol_name("intState")
    1313                            .dwattr $C$DW$65, DW_AT_type(*$C$DW$T$691)
    1314                            .dwattr $C$DW$65, DW_AT_location[DW_OP_reg6]
    1315                    
    1316                            .dwcfi  cfa_offset, 0
    1317 00000000 B5F8              PUSH      {A4, V1, V2, V3, V4, LR} ; [DPU_3_PIPE]  ; [ORIG 16-BIT INS]
    1318                            .dwcfi  cfa_offset, 24
    1319                            .dwcfi  save_reg_to_mem, 14, -4
    1320                            .dwcfi  save_reg_to_mem, 7, -8
TI ARM Assembler PC v16.9.4 Sat Nov 25 18:51:50 2017

Tools Copyright (c) 1996-2017 Texas Instruments Incorporated
C:\Users\Kevin\AppData\Local\Temp\{DC18D6BA-4494-45CB-997B-AC060EFC778A} PAGE   25

    1321                            .dwcfi  save_reg_to_mem, 6, -12
    1322                            .dwcfi  save_reg_to_mem, 5, -16
    1323                            .dwcfi  save_reg_to_mem, 4, -20
    1324                            .dwcfi  save_reg_to_mem, 3, -24
    1325 00000002 460C              MOV       V1, A2                ; [DPU_3_PIPE] |351|  ; [ORIG 16-BIT INS]
    1326 00000004 4601              MOV       A2, A1                ; [DPU_3_PIPE] |351|  ; [ORIG 16-BIT INS]
    1327                            .dwpsn  file "../Application/MAC/HighLevel/mac_security_pib.c",line 356,column 3,is_stmt,isa 1
    1328 00000006 3871              SUBS      A1, A1, #113          ; [DPU_3_PIPE] |356|  ; [ORIG 16-BIT INS]
    1329 00000008 2802              CMP       A1, #2                ; [DPU_3_PIPE] |356|  ; [ORIG 16-BIT INS]
    1330 0000000a AFFEF67F!         BLS       ||$C$L44||            ; [DPU_3_PIPE] |356|  ; [KEEP 32-BIT INS]
    1331                            ; BRANCHCC OCCURS {||$C$L44||}   ; [] |356| 
    1332                    ;* --------------------------------------------------------------------------*
    1333 0000000e 3813              SUBS      A1, A1, #19           ; [DPU_3_PIPE] |356|  ; [ORIG 16-BIT INS]
    1334 00000010 D026              BEQ       ||$C$L34||            ; [DPU_3_PIPE] |356|  ; [ORIG 16-BIT INS]
    1335                            ; BRANCHCC OCCURS {||$C$L34||}   ; [] |356| 
    1336                    ;* --------------------------------------------------------------------------*
    1337                            .dwpsn  file "../Application/MAC/HighLevel/mac_security_pib.c",line 370,column 7,is_stmt,isa 1
    1338 00000012 4F49              LDR       V4, $C$CON21          ; [DPU_3_PIPE] |370|  ; [ORIG 16-BIT INS]
    1339                            .dwpsn  file "../Application/MAC/HighLevel/mac_security_pib.c",line 356,column 3,is_stmt,isa 1
    1340 00000014 384C              SUBS      A1, A1, #76           ; [DPU_3_PIPE] |356|  ; [ORIG 16-BIT INS]
    1341 00000016 D076              BEQ       ||$C$L43||            ; [DPU_3_PIPE] |356|  ; [ORIG 16-BIT INS]
    1342                            ; BRANCHCC OCCURS {||$C$L43||}   ; [] |356| 
    1343                    ;* --------------------------------------------------------------------------*
    1344 00000018 1E40              SUBS      A1, A1, #1            ; [DPU_3_PIPE] |356|  ; [ORIG 16-BIT INS]
    1345 0000001a D05F              BEQ       ||$C$L42||            ; [DPU_3_PIPE] |356|  ; [ORIG 16-BIT INS]
    1346                            ; BRANCHCC OCCURS {||$C$L42||}   ; [] |356| 
    1347                    ;* --------------------------------------------------------------------------*
    1348 0000001c 1E40              SUBS      A1, A1, #1            ; [DPU_3_PIPE] |356|  ; [ORIG 16-BIT INS]
    1349 0000001e D048              BEQ       ||$C$L40||            ; [DPU_3_PIPE] |356|  ; [ORIG 16-BIT INS]
    1350                            ; BRANCHCC OCCURS {||$C$L40||}   ; [] |356| 
    1351                    ;* --------------------------------------------------------------------------*
    1352 00000020 1E40              SUBS      A1, A1, #1            ; [DPU_3_PIPE] |356|  ; [ORIG 16-BIT INS]
    1353 00000022 D036              BEQ       ||$C$L39||            ; [DPU_3_PIPE] |356|  ; [ORIG 16-BIT INS]
    1354                            ; BRANCHCC OCCURS {||$C$L39||}   ; [] |356| 
    1355                    ;* --------------------------------------------------------------------------*
    1356 00000024 1E40              SUBS      A1, A1, #1            ; [DPU_3_PIPE] |356|  ; [ORIG 16-BIT INS]
    1357 00000026 D029              BEQ       ||$C$L38||            ; [DPU_3_PIPE] |356|  ; [ORIG 16-BIT INS]
    1358                            ; BRANCHCC OCCURS {||$C$L38||}   ; [] |356| 
    1359                    ;* --------------------------------------------------------------------------*
    1360 00000028 1E40              SUBS      A1, A1, #1            ; [DPU_3_PIPE] |356|  ; [ORIG 16-BIT INS]
    1361 0000002a D01B              BEQ       ||$C$L35||            ; [DPU_3_PIPE] |356|  ; [ORIG 16-BIT INS]
    1362                            ; BRANCHCC OCCURS {||$C$L35||}   ; [] |356| 
    1363                    ;* --------------------------------------------------------------------------*
    1364                            .dwpsn  file "../Application/MAC/HighLevel/mac_security_pib.c",line 426,column 3,is_stmt,isa 1
    1365 0000002c 4608              MOV       A1, A2                ; [DPU_3_PIPE] |426|  ; [ORIG 16-BIT INS]
    1366                    $C$DW$66        .dwtag  DW_TAG_TI_branch
    1367                            .dwattr $C$DW$66, DW_AT_low_pc(0x00)
    1368                            .dwattr $C$DW$66, DW_AT_name("macSecurityPibIndex")
    1369                            .dwattr $C$DW$66, DW_AT_TI_call
    1370                    
    1371 0000002e FFFEF7FF!         BL        macSecurityPibIndex   ; [DPU_3_PIPE] |426|  ; [KEEP 32-BIT INS]
    1372                            ; CALL OCCURS {macSecurityPibIndex }  ; [] |426| 
    1373 00000032 4605              MOV       V2, A1                ; [DPU_3_PIPE] |426|  ; [ORIG 16-BIT INS]
    1374 00000034 2D0B              CMP       V2, #11               ; [DPU_3_PIPE] |426|  ; [ORIG 16-BIT INS]
    1375 00000036 D013              BEQ       ||$C$L34||            ; [DPU_3_PIPE] |426|  ; [ORIG 16-BIT INS]
TI ARM Assembler PC v16.9.4 Sat Nov 25 18:51:50 2017

Tools Copyright (c) 1996-2017 Texas Instruments Incorporated
C:\Users\Kevin\AppData\Local\Temp\{DC18D6BA-4494-45CB-997B-AC060EFC778A} PAGE   26

    1376                            ; BRANCHCC OCCURS {||$C$L34||}   ; [] |426| 
    1377                    ;* --------------------------------------------------------------------------*
    1378                            .dwpsn  file "../Application/MAC/HighLevel/mac_security_pib.c",line 431,column 3,is_stmt,isa 1
    1379 00000038 483E              LDR       A1, $C$CON19          ; [DPU_3_PIPE] |431|  ; [ORIG 16-BIT INS]
    1380 0000003a 6800              LDR       A1, [A1, #0]          ; [DPU_3_PIPE] |431|  ; [ORIG 16-BIT INS]
    1381                    $C$DW$67        .dwtag  DW_TAG_TI_branch
    1382                            .dwattr $C$DW$67, DW_AT_low_pc(0x00)
    1383                            .dwattr $C$DW$67, DW_AT_TI_call
    1384                            .dwattr $C$DW$67, DW_AT_TI_indirect
    1385                    
    1386 0000003c 4780              BLX       A1                    ; [DPU_3_PIPE] |431|  ; [ORIG 16-BIT INS]
    1387                            ; CALL OCCURS {}                 ; [] |431| 
    1388 0000003e 4606              MOV       V3, A1                ; [DPU_3_PIPE] |431|  ; [ORIG 16-BIT INS]
    1389                            .dwpsn  file "../Application/MAC/HighLevel/mac_security_pib.c",line 432,column 3,is_stmt,isa 1
    1390 00000040 4841              LDR       A1, $C$CON25          ; [DPU_3_PIPE] |432|  ; [ORIG 16-BIT INS]
    1391 00000042 1E40              SUBS      A1, A1, #1            ; [DPU_3_PIPE]  ; [ORIG 16-BIT INS]
    1392 00000044 0085EB00          ADD       A1, A1, V2, LSL #2    ; [DPU_3_PIPE] |432|  ; [KEEP 32-BIT INS]
    1393 00000048 7802              LDRB      A3, [A1, #0]          ; [DPU_3_PIPE] |432|  ; [ORIG 16-BIT INS]
    1394 0000004a 4639              MOV       A2, V4                ; [DPU_3_PIPE] |432|  ; [ORIG 16-BIT INS]
    1395 0000004c 1889              ADDS      A2, A2, A3            ; [DPU_3_PIPE] |432|  ; [ORIG 16-BIT INS]
    1396 0000004e 7842              LDRB      A3, [A1, #1]          ; [DPU_3_PIPE] |432|  ; [ORIG 16-BIT INS]
    1397 00000050 4620              MOV       A1, V1                ; [DPU_3_PIPE] |432|  ; [ORIG 16-BIT INS]
    1398                    $C$DW$68        .dwtag  DW_TAG_TI_branch
    1399                            .dwattr $C$DW$68, DW_AT_low_pc(0x00)
    1400                            .dwattr $C$DW$68, DW_AT_name("osal_memcpy")
    1401                            .dwattr $C$DW$68, DW_AT_TI_call
    1402                    
    1403 00000052 FFFEF7FF!         BL        osal_memcpy           ; [DPU_3_PIPE] |432|  ; [KEEP 32-BIT INS]
    1404                            ; CALL OCCURS {osal_memcpy }     ; [] |432| 
    1405                            .dwpsn  file "../Application/MAC/HighLevel/mac_security_pib.c",line 433,column 3,is_stmt,isa 1
    1406 00000056 4839              LDR       A1, $C$CON22          ; [DPU_3_PIPE] |433|  ; [ORIG 16-BIT INS]
    1407 00000058 6801              LDR       A2, [A1, #0]          ; [DPU_3_PIPE] |433|  ; [ORIG 16-BIT INS]
    1408 0000005a 4630              MOV       A1, V3                ; [DPU_3_PIPE] |433|  ; [ORIG 16-BIT INS]
    1409                    $C$DW$69        .dwtag  DW_TAG_TI_branch
    1410                            .dwattr $C$DW$69, DW_AT_low_pc(0x00)
    1411                            .dwattr $C$DW$69, DW_AT_TI_call
    1412                            .dwattr $C$DW$69, DW_AT_TI_indirect
    1413                    
    1414 0000005c 4788              BLX       A2                    ; [DPU_3_PIPE] |433|  ; [ORIG 16-BIT INS]
    1415                            ; CALL OCCURS {}                 ; [] |433| 
    1416                            .dwpsn  file "../Application/MAC/HighLevel/mac_security_pib.c",line 434,column 3,is_stmt,isa 1
    1417 0000005e E00B              B         ||$C$L37||            ; [DPU_3_PIPE] |434|  ; [ORIG 16-BIT INS]
    1418                            ; BRANCH OCCURS {||$C$L37||}     ; [] |434| 
    1419                    ;* --------------------------------------------------------------------------*
    1420 00000060           ||$C$L34||:    
    1421                            .dwcfi  remember_state
    1422                            .dwpsn  file "../Application/MAC/HighLevel/mac_security_pib.c",line 428,column 5,is_stmt,isa 1
    1423 00000060 20F4              MOVS      A1, #244              ; [DPU_3_PIPE] |428|  ; [ORIG 16-BIT INS]
    1424                    $C$DW$70        .dwtag  DW_TAG_TI_branch
    1425                            .dwattr $C$DW$70, DW_AT_low_pc(0x00)
    1426                            .dwattr $C$DW$70, DW_AT_TI_return
    1427                    
    1428 00000062 BDF8              POP       {A4, V1, V2, V3, V4, PC} ; [DPU_3_PIPE]  ; [ORIG 16-BIT INS]
    1429                            .dwcfi  cfa_offset, 0
    1430                            ; BRANCH OCCURS                  ; [] 
TI ARM Assembler PC v16.9.4 Sat Nov 25 18:51:50 2017

Tools Copyright (c) 1996-2017 Texas Instruments Incorporated
C:\Users\Kevin\AppData\Local\Temp\{DC18D6BA-4494-45CB-997B-AC060EFC778A} PAGE   27

    1431                            .dwcfi  restore_reg, 7
    1432                            .dwcfi  restore_reg, 6
    1433                            .dwcfi  restore_reg, 5
    1434                            .dwcfi  restore_reg, 4
    1435                            .dwcfi  restore_reg, 3
    1436                            .dwcfi  restore_state
    1437                    ;* --------------------------------------------------------------------------*
    1438 00000064           ||$C$L35||:    
    1439                            .dwpsn  file "../Application/MAC/HighLevel/mac_security_pib.c",line 418,column 7,is_stmt,isa 1
    1440 00000064 7822              LDRB      A3, [V1, #0]          ; [DPU_3_PIPE] |418|  ; [ORIG 16-BIT INS]
    1441 00000066 2A02              CMP       A3, #2                ; [DPU_3_PIPE] |418|  ; [ORIG 16-BIT INS]
    1442 00000068 DA61              BGE       ||$C$L44||            ; [DPU_3_PIPE] |418|  ; [ORIG 16-BIT INS]
    1443                            ; BRANCHCC OCCURS {||$C$L44||}   ; [] |418| 
    1444                    ;* --------------------------------------------------------------------------*
    1445                            .dwcfi  remember_state
    1446                            .dwpsn  file "../Application/MAC/HighLevel/mac_security_pib.c",line 422,column 7,is_stmt,isa 1
    1447 0000006a 4935              LDR       A2, $C$CON23          ; [DPU_3_PIPE] |422|  ; [ORIG 16-BIT INS]
    1448 0000006c 1C60              ADDS      A1, V1, #1            ; [DPU_3_PIPE] |422|  ; [ORIG 16-BIT INS]
    1449 0000006e 0182EB01          ADD       A2, A2, A3, LSL #2    ; [DPU_3_PIPE] |422|  ; [KEEP 32-BIT INS]
    1450 00000072 2204              MOVS      A3, #4                ; [DPU_3_PIPE] |422|  ; [ORIG 16-BIT INS]
    1451                    ;* --------------------------------------------------------------------------*
    1452                    ||$C$L36||:    
    1453                    $C$DW$71        .dwtag  DW_TAG_TI_branch
    1454                            .dwattr $C$DW$71, DW_AT_low_pc(0x00)
    1455                            .dwattr $C$DW$71, DW_AT_name("osal_memcpy")
    1456                            .dwattr $C$DW$71, DW_AT_TI_call
    1457                    
    1458 00000074 FFFEF7FF!         BL        osal_memcpy           ; [DPU_3_PIPE] |422|  ; [KEEP 32-BIT INS]
    1459                            ; CALL OCCURS {osal_memcpy }     ; [] |422| 
    1460                    ;* --------------------------------------------------------------------------*
    1461 00000078           ||$C$L37||:    
    1462                            .dwpsn  file "../Application/MAC/HighLevel/mac_security_pib.c",line 423,column 7,is_stmt,isa 1
    1463 00000078 2000              MOVS      A1, #0                ; [DPU_3_PIPE] |423|  ; [ORIG 16-BIT INS]
    1464                    $C$DW$72        .dwtag  DW_TAG_TI_branch
    1465                            .dwattr $C$DW$72, DW_AT_low_pc(0x00)
    1466                            .dwattr $C$DW$72, DW_AT_TI_return
    1467                    
    1468 0000007a BDF8              POP       {A4, V1, V2, V3, V4, PC} ; [DPU_3_PIPE]  ; [ORIG 16-BIT INS]
    1469                            .dwcfi  cfa_offset, 0
    1470                            ; BRANCH OCCURS                  ; [] 
    1471                            .dwcfi  restore_reg, 7
    1472                            .dwcfi  restore_reg, 6
    1473                            .dwcfi  restore_reg, 5
    1474                            .dwcfi  restore_reg, 4
    1475                            .dwcfi  restore_reg, 3
    1476                            .dwcfi  restore_state
    1477                    ;* --------------------------------------------------------------------------*
    1478 0000007c           ||$C$L38||:    
    1479                            .dwpsn  file "../Application/MAC/HighLevel/mac_security_pib.c",line 409,column 7,is_stmt,isa 1
    1480 0000007c 7821              LDRB      A2, [V1, #0]          ; [DPU_3_PIPE] |409|  ; [ORIG 16-BIT INS]
    1481 0000007e 2932              CMP       A2, #50               ; [DPU_3_PIPE] |409|  ; [ORIG 16-BIT INS]
    1482 00000080 DA55              BGE       ||$C$L44||            ; [DPU_3_PIPE] |409|  ; [ORIG 16-BIT INS]
    1483                            ; BRANCHCC OCCURS {||$C$L44||}   ; [] |409| 
    1484                    ;* --------------------------------------------------------------------------*
    1485                            .dwpsn  file "../Application/MAC/HighLevel/mac_security_pib.c",line 413,column 7,is_stmt,isa 1
TI ARM Assembler PC v16.9.4 Sat Nov 25 18:51:50 2017

Tools Copyright (c) 1996-2017 Texas Instruments Incorporated
C:\Users\Kevin\AppData\Local\Temp\{DC18D6BA-4494-45CB-997B-AC060EFC778A} PAGE   28

    1486 00000082 4F30              LDR       V4, $C$CON24          ; [DPU_3_PIPE] |413|  ; [ORIG 16-BIT INS]
    1487 00000084 00CA              LSLS      A3, A2, #3            ; [DPU_3_PIPE] |413|  ; [ORIG 16-BIT INS]
    1488 00000086 1D20              ADDS      A1, V1, #4            ; [DPU_3_PIPE] |413|  ; [ORIG 16-BIT INS]
    1489 00000088 1201EB02          ADD       A3, A3, A2, LSL #4    ; [DPU_3_PIPE] |413|  ; [KEEP 32-BIT INS]
    1490 0000008c 18B9              ADDS      A2, V4, A3            ; [DPU_3_PIPE] |413|  ; [ORIG 16-BIT INS]
    1491 0000008e 2218              MOVS      A3, #24               ; [DPU_3_PIPE] |413|  ; [ORIG 16-BIT INS]
    1492                            .dwpsn  file "../Application/MAC/HighLevel/mac_security_pib.c",line 414,column 7,is_stmt,isa 1
    1493 00000090 E7F0              B         ||$C$L36||            ; [DPU_3_PIPE] |414|  ; [ORIG 16-BIT INS]
    1494                            ; BRANCH OCCURS {||$C$L36||}     ; [] |414| 
    1495                    ;* --------------------------------------------------------------------------*
    1496 00000092           ||$C$L39||:    
    1497                            .dwpsn  file "../Application/MAC/HighLevel/mac_security_pib.c",line 398,column 7,is_stmt,isa 1
    1498 00000092 7826              LDRB      V3, [V1, #0]          ; [DPU_3_PIPE] |398|  ; [ORIG 16-BIT INS]
    1499 00000094 2E02              CMP       V3, #2                ; [DPU_3_PIPE] |398|  ; [ORIG 16-BIT INS]
    1500 00000096 DA4A              BGE       ||$C$L44||            ; [DPU_3_PIPE] |398|  ; [ORIG 16-BIT INS]
    1501                            ; BRANCHCC OCCURS {||$C$L44||}   ; [] |398| 
    1502                    ;* --------------------------------------------------------------------------*
    1503                            .dwpsn  file "../Application/MAC/HighLevel/mac_security_pib.c",line 403,column 7,is_stmt,isa 1
    1504 00000098 252C              MOVS      V2, #44               ; [DPU_3_PIPE] |403|  ; [ORIG 16-BIT INS]
    1505 0000009a 1C60              ADDS      A1, V1, #1            ; [DPU_3_PIPE] |403|  ; [ORIG 16-BIT INS]
    1506 0000009c 7106FB05          MLA       A2, V2, V3, V4        ; [DPU_3_PIPE] |403|  ; [KEEP 32-BIT INS]
    1507 000000a0 2210              MOVS      A3, #16               ; [DPU_3_PIPE] |403|  ; [ORIG 16-BIT INS]
    1508 000000a2 3139              ADDS      A2, A2, #57           ; [DPU_3_PIPE] |403|  ; [ORIG 16-BIT INS]
    1509                    $C$DW$73        .dwtag  DW_TAG_TI_branch
    1510                            .dwattr $C$DW$73, DW_AT_low_pc(0x00)
    1511                            .dwattr $C$DW$73, DW_AT_name("osal_memcpy")
    1512                            .dwattr $C$DW$73, DW_AT_TI_call
    1513                    
    1514 000000a4 FFFEF7FF!         BL        osal_memcpy           ; [DPU_3_PIPE] |403|  ; [KEEP 32-BIT INS]
    1515                            ; CALL OCCURS {osal_memcpy }     ; [] |403| 
    1516                            .dwpsn  file "../Application/MAC/HighLevel/mac_security_pib.c",line 404,column 7,is_stmt,isa 1
    1517 000000a8 7006FB05          MLA       A1, V2, V3, V4        ; [DPU_3_PIPE] |404|  ; [KEEP 32-BIT INS]
    1518 000000ac 6CC0              LDR       A1, [A1, #76]         ; [DPU_3_PIPE] |404|  ; [ORIG 16-BIT INS]
    1519 000000ae 6160              STR       A1, [V1, #20]         ; [DPU_3_PIPE] |404|  ; [ORIG 16-BIT INS]
    1520                            .dwpsn  file "../Application/MAC/HighLevel/mac_security_pib.c",line 405,column 7,is_stmt,isa 1
    1521 000000b0 E7E2              B         ||$C$L37||            ; [DPU_3_PIPE] |405|  ; [ORIG 16-BIT INS]
    1522                            ; BRANCH OCCURS {||$C$L37||}     ; [] |405| 
    1523                    ;* --------------------------------------------------------------------------*
    1524 000000b2           ||$C$L40||:    
    1525                            .dwpsn  file "../Application/MAC/HighLevel/mac_security_pib.c",line 390,column 7,is_stmt,isa 1
    1526 000000b2 7823              LDRB      A4, [V1, #0]          ; [DPU_3_PIPE] |390|  ; [ORIG 16-BIT INS]
    1527 000000b4 2B02              CMP       A4, #2                ; [DPU_3_PIPE] |390|  ; [ORIG 16-BIT INS]
    1528 000000b6 DA3A              BGE       ||$C$L44||            ; [DPU_3_PIPE] |390|  ; [ORIG 16-BIT INS]
    1529                            ; BRANCHCC OCCURS {||$C$L44||}   ; [] |390| 
    1530                    ;* --------------------------------------------------------------------------*
    1531 000000b8 7862              LDRB      A3, [V1, #1]          ; [DPU_3_PIPE] |390|  ; [ORIG 16-BIT INS]
    1532 000000ba 4639              MOV       A2, V4                ; [DPU_3_PIPE] |390|  ; [ORIG 16-BIT INS]
    1533 000000bc 202C              MOVS      A1, #44               ; [DPU_3_PIPE] |390|  ; [ORIG 16-BIT INS]
    1534 000000be 1003FB00          MLA       A1, A1, A4, A2        ; [DPU_3_PIPE] |390|  ; [KEEP 32-BIT INS]
    1535 000000c2 0038F890          LDRB      A1, [A1, #56]         ; [DPU_3_PIPE] |390|  ; [KEEP 32-BIT INS]
    1536 000000c6 4290              CMP       A1, A3                ; [DPU_3_PIPE] |390|  ; [ORIG 16-BIT INS]
    1537 000000c8 DD31              BLE       ||$C$L44||            ; [DPU_3_PIPE] |390|  ; [ORIG 16-BIT INS]
    1538                            ; BRANCHCC OCCURS {||$C$L44||}   ; [] |390| 
    1539                    ;* --------------------------------------------------------------------------*
    1540                            .dwpsn  file "../Application/MAC/HighLevel/mac_security_pib.c",line 394,column 7,is_stmt,isa 1
TI ARM Assembler PC v16.9.4 Sat Nov 25 18:51:50 2017

Tools Copyright (c) 1996-2017 Texas Instruments Incorporated
C:\Users\Kevin\AppData\Local\Temp\{DC18D6BA-4494-45CB-997B-AC060EFC778A} PAGE   29

    1541 000000ca 0243EB02          ADD       A3, A3, A4, LSL #1    ; [DPU_3_PIPE] |394|  ; [KEEP 32-BIT INS]
    1542 000000ce 0142EB01          ADD       A2, A2, A3, LSL #1    ; [DPU_3_PIPE] |394|  ; [KEEP 32-BIT INS]
    1543 000000d2 2202              MOVS      A3, #2                ; [DPU_3_PIPE] |394|  ; [ORIG 16-BIT INS]
    1544 000000d4 71DEF501          ADD       A2, A2, #444          ; [DPU_3_PIPE] |394|  ; [KEEP 32-BIT INS]
    1545                    ;* --------------------------------------------------------------------------*
    1546 000000d8           ||$C$L41||:    
    1547 000000d8 1CA0              ADDS      A1, V1, #2            ; [DPU_3_PIPE] |394|  ; [ORIG 16-BIT INS]
    1548                            .dwpsn  file "../Application/MAC/HighLevel/mac_security_pib.c",line 395,column 7,is_stmt,isa 1
    1549 000000da E7CB              B         ||$C$L36||            ; [DPU_3_PIPE] |395|  ; [ORIG 16-BIT INS]
    1550                            ; BRANCH OCCURS {||$C$L36||}     ; [] |395| 
    1551                    ;* --------------------------------------------------------------------------*
    1552 000000dc           ||$C$L42||:    
    1553                            .dwpsn  file "../Application/MAC/HighLevel/mac_security_pib.c",line 380,column 7,is_stmt,isa 1
    1554 000000dc 7820              LDRB      A1, [V1, #0]          ; [DPU_3_PIPE] |380|  ; [ORIG 16-BIT INS]
    1555 000000de 2802              CMP       A1, #2                ; [DPU_3_PIPE] |380|  ; [ORIG 16-BIT INS]
    1556 000000e0 DA25              BGE       ||$C$L44||            ; [DPU_3_PIPE] |380|  ; [ORIG 16-BIT INS]
    1557                            ; BRANCHCC OCCURS {||$C$L44||}   ; [] |380| 
    1558                    ;* --------------------------------------------------------------------------*
    1559 000000e2 7862              LDRB      A3, [V1, #1]          ; [DPU_3_PIPE] |380|  ; [ORIG 16-BIT INS]
    1560 000000e4 4639              MOV       A2, V4                ; [DPU_3_PIPE] |380|  ; [ORIG 16-BIT INS]
    1561 000000e6 232C              MOVS      A4, #44               ; [DPU_3_PIPE] |380|  ; [ORIG 16-BIT INS]
    1562 000000e8 1300FB03          MLA       A4, A4, A1, A2        ; [DPU_3_PIPE] |380|  ; [KEEP 32-BIT INS]
    1563 000000ec 3030F893          LDRB      A4, [A4, #48]         ; [DPU_3_PIPE] |380|  ; [KEEP 32-BIT INS]
    1564 000000f0 4293              CMP       A4, A3                ; [DPU_3_PIPE] |380|  ; [ORIG 16-BIT INS]
    1565 000000f2 DD1C              BLE       ||$C$L44||            ; [DPU_3_PIPE] |380|  ; [ORIG 16-BIT INS]
    1566                            ; BRANCHCC OCCURS {||$C$L44||}   ; [] |380| 
    1567                    ;* --------------------------------------------------------------------------*
    1568                            .dwpsn  file "../Application/MAC/HighLevel/mac_security_pib.c",line 384,column 7,is_stmt,isa 1
    1569 000000f4 2332              MOVS      A4, #50               ; [DPU_3_PIPE] |384|  ; [ORIG 16-BIT INS]
    1570 000000f6 2000FB03          MLA       A1, A4, A1, A3        ; [DPU_3_PIPE] |384|  ; [KEEP 32-BIT INS]
    1571 000000fa 0040EB00          ADD       A1, A1, A1, LSL #1    ; [DPU_3_PIPE] |384|  ; [KEEP 32-BIT INS]
    1572 000000fe 2203              MOVS      A3, #3                ; [DPU_3_PIPE] |384|  ; [ORIG 16-BIT INS]
    1573 00000100 1809              ADDS      A2, A2, A1            ; [DPU_3_PIPE] |384|  ; [ORIG 16-BIT INS]
    1574 00000102 3190              ADDS      A2, A2, #144          ; [DPU_3_PIPE] |384|  ; [ORIG 16-BIT INS]
    1575                            .dwpsn  file "../Application/MAC/HighLevel/mac_security_pib.c",line 385,column 7,is_stmt,isa 1
    1576 00000104 E7E8              B         ||$C$L41||            ; [DPU_3_PIPE] |385|  ; [ORIG 16-BIT INS]
    1577                            ; BRANCH OCCURS {||$C$L41||}     ; [] |385| 
    1578                    ;* --------------------------------------------------------------------------*
    1579 00000106           ||$C$L43||:    
    1580                            .dwpsn  file "../Application/MAC/HighLevel/mac_security_pib.c",line 370,column 7,is_stmt,isa 1
    1581 00000106 7820              LDRB      A1, [V1, #0]          ; [DPU_3_PIPE] |370|  ; [ORIG 16-BIT INS]
    1582 00000108 2802              CMP       A1, #2                ; [DPU_3_PIPE] |370|  ; [ORIG 16-BIT INS]
    1583 0000010a DA10              BGE       ||$C$L44||            ; [DPU_3_PIPE] |370|  ; [ORIG 16-BIT INS]
    1584                            ; BRANCHCC OCCURS {||$C$L44||}   ; [] |370| 
    1585                    ;* --------------------------------------------------------------------------*
    1586 0000010c 7862              LDRB      A3, [V1, #1]          ; [DPU_3_PIPE] |370|  ; [ORIG 16-BIT INS]
    1587 0000010e 4639              MOV       A2, V4                ; [DPU_3_PIPE] |370|  ; [ORIG 16-BIT INS]
    1588 00000110 232C              MOVS      A4, #44               ; [DPU_3_PIPE] |370|  ; [ORIG 16-BIT INS]
    1589 00000112 1300FB03          MLA       A4, A4, A1, A2        ; [DPU_3_PIPE] |370|  ; [KEEP 32-BIT INS]
    1590 00000116 3028F893          LDRB      A4, [A4, #40]         ; [DPU_3_PIPE] |370|  ; [KEEP 32-BIT INS]
    1591 0000011a 4293              CMP       A4, A3                ; [DPU_3_PIPE] |370|  ; [ORIG 16-BIT INS]
    1592 0000011c DD07              BLE       ||$C$L44||            ; [DPU_3_PIPE] |370|  ; [ORIG 16-BIT INS]
    1593                            ; BRANCHCC OCCURS {||$C$L44||}   ; [] |370| 
    1594                    ;* --------------------------------------------------------------------------*
    1595                            .dwpsn  file "../Application/MAC/HighLevel/mac_security_pib.c",line 374,column 7,is_stmt,isa 1
TI ARM Assembler PC v16.9.4 Sat Nov 25 18:51:50 2017

Tools Copyright (c) 1996-2017 Texas Instruments Incorporated
C:\Users\Kevin\AppData\Local\Temp\{DC18D6BA-4494-45CB-997B-AC060EFC778A} PAGE   30

    1596 0000011e 1880              ADDS      A1, A1, A3            ; [DPU_3_PIPE] |374|  ; [ORIG 16-BIT INS]
    1597 00000120 0042              LSLS      A3, A1, #1            ; [DPU_3_PIPE] |374|  ; [ORIG 16-BIT INS]
    1598 00000122 02C0EB02          ADD       A3, A3, A1, LSL #3    ; [DPU_3_PIPE] |374|  ; [KEEP 32-BIT INS]
    1599 00000126 1889              ADDS      A2, A2, A3            ; [DPU_3_PIPE] |374|  ; [ORIG 16-BIT INS]
    1600 00000128 220A              MOVS      A3, #10               ; [DPU_3_PIPE] |374|  ; [ORIG 16-BIT INS]
    1601 0000012a 317C              ADDS      A2, A2, #124          ; [DPU_3_PIPE] |374|  ; [ORIG 16-BIT INS]
    1602                            .dwpsn  file "../Application/MAC/HighLevel/mac_security_pib.c",line 375,column 7,is_stmt,isa 1
    1603 0000012c E7D4              B         ||$C$L41||            ; [DPU_3_PIPE] |375|  ; [ORIG 16-BIT INS]
    1604                            ; BRANCH OCCURS {||$C$L41||}     ; [] |375| 
    1605                    ;* --------------------------------------------------------------------------*
    1606 0000012e           ||$C$L44||:    
    1607                            .dwpsn  file "../Application/MAC/HighLevel/mac_security_pib.c",line 372,column 9,is_stmt,isa 1
    1608 0000012e 20E8              MOVS      A1, #232              ; [DPU_3_PIPE] |372|  ; [ORIG 16-BIT INS]
    1609                    ;* --------------------------------------------------------------------------*
    1610                    $C$DW$74        .dwtag  DW_TAG_TI_branch
    1611                            .dwattr $C$DW$74, DW_AT_low_pc(0x00)
    1612                            .dwattr $C$DW$74, DW_AT_TI_return
    1613                    
    1614 00000130 BDF8              POP       {A4, V1, V2, V3, V4, PC} ; [DPU_3_PIPE]  ; [ORIG 16-BIT INS]
    1615                            .dwcfi  cfa_offset, 0
    1616                            ; BRANCH OCCURS                  ; [] 
    1617                            .dwattr $C$DW$58, DW_AT_TI_end_file("../Application/MAC/HighLevel/mac_security_pib.c")
    1618                            .dwattr $C$DW$58, DW_AT_TI_end_line(0x1b3)
    1619                            .dwattr $C$DW$58, DW_AT_TI_end_column(0x01)
    1620                            .dwendentry
    1621                            .dwendtag $C$DW$58
    1622                    
    1623 00000000                   .sect   ".text:MAC_MlmeGetPointerSecurityReq"
    1624                            .clink
    1625                            .thumbfunc MAC_MlmeGetPointerSecurityReq
    1626 00000000                   .thumb
    1627                            .global MAC_MlmeGetPointerSecurityReq
    1628                    
    1629                    $C$DW$75        .dwtag  DW_TAG_subprogram
    1630                            .dwattr $C$DW$75, DW_AT_name("MAC_MlmeGetPointerSecurityReq")
    1631                            .dwattr $C$DW$75, DW_AT_low_pc(MAC_MlmeGetPointerSecurityReq)
    1632                            .dwattr $C$DW$75, DW_AT_high_pc(0x00)
    1633                            .dwattr $C$DW$75, DW_AT_TI_symbol_name("MAC_MlmeGetPointerSecurityReq")
    1634                            .dwattr $C$DW$75, DW_AT_external
    1635                            .dwattr $C$DW$75, DW_AT_type(*$C$DW$T$19)
    1636                            .dwattr $C$DW$75, DW_AT_TI_begin_file("../Application/MAC/HighLevel/mac_security_pib.c")
    1637                            .dwattr $C$DW$75, DW_AT_TI_begin_line(0x1c7)
    1638                            .dwattr $C$DW$75, DW_AT_TI_begin_column(0x18)
    1639                            .dwattr $C$DW$75, DW_AT_decl_file("../Application/MAC/HighLevel/mac_security_pib.c")
    1640                            .dwattr $C$DW$75, DW_AT_decl_line(0x1c7)
    1641                            .dwattr $C$DW$75, DW_AT_decl_column(0x18)
    1642                            .dwattr $C$DW$75, DW_AT_TI_max_frame_size(0x00)
    1643                            .dwpsn  file "../Application/MAC/HighLevel/mac_security_pib.c",line 456,column 1,is_stmt,addre
    1644                    
    1645                            .dwfde $C$DW$CIE, MAC_MlmeGetPointerSecurityReq
    1646                    $C$DW$76        .dwtag  DW_TAG_formal_parameter
    1647                            .dwattr $C$DW$76, DW_AT_name("pibAttribute")
    1648                            .dwattr $C$DW$76, DW_AT_TI_symbol_name("pibAttribute")
    1649                            .dwattr $C$DW$76, DW_AT_type(*$C$DW$T$19)
    1650                            .dwattr $C$DW$76, DW_AT_location[DW_OP_reg0]
TI ARM Assembler PC v16.9.4 Sat Nov 25 18:51:50 2017

Tools Copyright (c) 1996-2017 Texas Instruments Incorporated
C:\Users\Kevin\AppData\Local\Temp\{DC18D6BA-4494-45CB-997B-AC060EFC778A} PAGE   31

    1651                    
    1652                    $C$DW$77        .dwtag  DW_TAG_formal_parameter
    1653                            .dwattr $C$DW$77, DW_AT_name("pValue")
    1654                            .dwattr $C$DW$77, DW_AT_TI_symbol_name("pValue")
    1655                            .dwattr $C$DW$77, DW_AT_type(*$C$DW$T$627)
    1656                            .dwattr $C$DW$77, DW_AT_location[DW_OP_reg1]
    1657                    
    1658                    
    1659                    ;*****************************************************************************
    1660                    ;* FUNCTION NAME: MAC_MlmeGetPointerSecurityReq                              *
    1661                    ;*                                                                           *
    1662                    ;*   Regs Modified     : A1,SR                                               *
    1663                    ;*   Regs Used         : A1,A2,LR,SR                                         *
    1664                    ;*   Local Frame Size  : 0 Args + 0 Auto + 0 Save = 0 byte                   *
    1665                    ;*****************************************************************************
    1666                    MAC_MlmeGetPointerSecurityReq:
    1667                    ;* --------------------------------------------------------------------------*
    1668                    ;* A2    assigned to pValue
    1669                    $C$DW$78        .dwtag  DW_TAG_variable
    1670                            .dwattr $C$DW$78, DW_AT_name("pValue")
    1671                            .dwattr $C$DW$78, DW_AT_TI_symbol_name("pValue")
    1672                            .dwattr $C$DW$78, DW_AT_type(*$C$DW$T$628)
    1673                            .dwattr $C$DW$78, DW_AT_location[DW_OP_reg1]
    1674                    
    1675                            .dwcfi  cfa_offset, 0
    1676                            .dwpsn  file "../Application/MAC/HighLevel/mac_security_pib.c",line 457,column 3,is_stmt,isa 1
    1677 00000000 3871              SUBS      A1, A1, #113          ; [DPU_3_PIPE] |457|  ; [ORIG 16-BIT INS]
    1678 00000002 D004              BEQ       ||$C$L45||            ; [DPU_3_PIPE] |457|  ; [ORIG 16-BIT INS]
    1679                            ; BRANCHCC OCCURS {||$C$L45||}   ; [] |457| 
    1680                    ;* --------------------------------------------------------------------------*
    1681 00000004 1E40              SUBS      A1, A1, #1            ; [DPU_3_PIPE] |457|  ; [ORIG 16-BIT INS]
    1682 00000006 D006              BEQ       ||$C$L47||            ; [DPU_3_PIPE] |457|  ; [ORIG 16-BIT INS]
    1683                            ; BRANCHCC OCCURS {||$C$L47||}   ; [] |457| 
    1684                    ;* --------------------------------------------------------------------------*
    1685 00000008 1E40              SUBS      A1, A1, #1            ; [DPU_3_PIPE] |457|  ; [ORIG 16-BIT INS]
    1686 0000000a D006              BEQ       ||$C$L48||            ; [DPU_3_PIPE] |457|  ; [ORIG 16-BIT INS]
    1687                            ; BRANCHCC OCCURS {||$C$L48||}   ; [] |457| 
    1688                    ;* --------------------------------------------------------------------------*
    1689 0000000c E007              B         ||$C$L49||            ; [DPU_3_PIPE] |457|  ; [ORIG 16-BIT INS]
    1690                            ; BRANCH OCCURS {||$C$L49||}     ; [] |457| 
    1691                    ;* --------------------------------------------------------------------------*
    1692 0000000e           ||$C$L45||:    
    1693                            .dwcfi  remember_state
    1694                            .dwpsn  file "../Application/MAC/HighLevel/mac_security_pib.c",line 460,column 5,is_stmt,isa 1
    1695 0000000e 4805              LDR       A1, $C$CON26          ; [DPU_3_PIPE] |460|  ; [ORIG 16-BIT INS]
    1696                    ;* --------------------------------------------------------------------------*
    1697 00000010           ||$C$L46||:    
    1698 00000010 6008              STR       A1, [A2, #0]          ; [DPU_3_PIPE] |460|  ; [ORIG 16-BIT INS]
    1699                            .dwpsn  file "../Application/MAC/HighLevel/mac_security_pib.c",line 461,column 5,is_stmt,isa 1
    1700 00000012 2000              MOVS      A1, #0                ; [DPU_3_PIPE] |461|  ; [ORIG 16-BIT INS]
    1701                    $C$DW$79        .dwtag  DW_TAG_TI_branch
    1702                            .dwattr $C$DW$79, DW_AT_low_pc(0x00)
    1703                            .dwattr $C$DW$79, DW_AT_TI_return
    1704                    
    1705 00000014 4770              BX        LR                    ; [DPU_3_PIPE]  ; [ORIG 16-BIT INS]
TI ARM Assembler PC v16.9.4 Sat Nov 25 18:51:50 2017

Tools Copyright (c) 1996-2017 Texas Instruments Incorporated
C:\Users\Kevin\AppData\Local\Temp\{DC18D6BA-4494-45CB-997B-AC060EFC778A} PAGE   32

    1706                            ; BRANCH OCCURS                  ; [] 
    1707                            .dwcfi  restore_state
    1708                    ;* --------------------------------------------------------------------------*
    1709 00000016           ||$C$L47||:    
    1710                            .dwpsn  file "../Application/MAC/HighLevel/mac_security_pib.c",line 463,column 5,is_stmt,isa 1
    1711 00000016 4805              LDR       A1, $C$CON29          ; [DPU_3_PIPE] |463|  ; [ORIG 16-BIT INS]
    1712                            .dwpsn  file "../Application/MAC/HighLevel/mac_security_pib.c",line 464,column 5,is_stmt,isa 1
    1713 00000018 E7FA              B         ||$C$L46||            ; [DPU_3_PIPE] |464|  ; [ORIG 16-BIT INS]
    1714                            ; BRANCH OCCURS {||$C$L46||}     ; [] |464| 
    1715                    ;* --------------------------------------------------------------------------*
    1716 0000001a           ||$C$L48||:    
    1717                            .dwpsn  file "../Application/MAC/HighLevel/mac_security_pib.c",line 466,column 5,is_stmt,isa 1
    1718 0000001a 4803              LDR       A1, $C$CON28          ; [DPU_3_PIPE] |466|  ; [ORIG 16-BIT INS]
    1719                            .dwpsn  file "../Application/MAC/HighLevel/mac_security_pib.c",line 467,column 5,is_stmt,isa 1
    1720 0000001c E7F8              B         ||$C$L46||            ; [DPU_3_PIPE] |467|  ; [ORIG 16-BIT INS]
    1721                            ; BRANCH OCCURS {||$C$L46||}     ; [] |467| 
    1722                    ;* --------------------------------------------------------------------------*
    1723 0000001e           ||$C$L49||:    
    1724                            .dwpsn  file "../Application/MAC/HighLevel/mac_security_pib.c",line 469,column 5,is_stmt,isa 1
    1725 0000001e 20E8              MOVS      A1, #232              ; [DPU_3_PIPE] |469|  ; [ORIG 16-BIT INS]
    1726                    ;* --------------------------------------------------------------------------*
    1727                    $C$DW$80        .dwtag  DW_TAG_TI_branch
    1728                            .dwattr $C$DW$80, DW_AT_low_pc(0x00)
    1729                            .dwattr $C$DW$80, DW_AT_TI_return
    1730                    
    1731 00000020 4770              BX        LR                    ; [DPU_3_PIPE]  ; [ORIG 16-BIT INS]
    1732                            ; BRANCH OCCURS                  ; [] 
    1733                            .dwattr $C$DW$75, DW_AT_TI_end_file("../Application/MAC/HighLevel/mac_security_pib.c")
    1734                            .dwattr $C$DW$75, DW_AT_TI_end_line(0x1d7)
    1735                            .dwattr $C$DW$75, DW_AT_TI_end_column(0x01)
    1736                            .dwendentry
    1737                            .dwendtag $C$DW$75
    1738                    
    1739                    ;******************************************************************************
    1740                    ;* CONSTANT TABLE                                                             *
    1741                    ;******************************************************************************
    1742 0000007a                   .sect   ".text:macSecurityPibReset"
    1743                            .align  4
    1744 0000007a 000046C0! ||$C$CON1||:    .bits   macSecurityPib,32
         0000007e 00000000 
    1745                    ;******************************************************************************
    1746                    ;* CONSTANT TABLE                                                             *
    1747                    ;******************************************************************************
    1748 000001c6                   .sect   ".text:MAC_MlmeSetSecurityReq"
    1749                            .align  4
    1750 000001c6 000046C0! ||$C$CON7||:    .bits   macSecurityPibTbl,32
         000001ca 00000000 
    1751                            .align  4
    1752 000001ca 00000000! ||$C$CON8||:    .bits   ICall_enterCriticalSection,32
         000001ce 00000000 
    1753                            .align  4
    1754 000001ce 00000000! ||$C$CON9||:    .bits   macSecurityPib,32
         000001d2 00000000 
    1755                            .align  4
    1756 000001d2 00000000! ||$C$CON10||:   .bits   ICall_leaveCriticalSection,32
TI ARM Assembler PC v16.9.4 Sat Nov 25 18:51:50 2017

Tools Copyright (c) 1996-2017 Texas Instruments Incorporated
C:\Users\Kevin\AppData\Local\Temp\{DC18D6BA-4494-45CB-997B-AC060EFC778A} PAGE   33

         000001d6 00000000 
    1757                            .align  4
    1758 000001d6 06740000! ||$C$CON11||:   .bits   macSecurityPib+1652,32
         000001da 00000000 
    1759                            .align  4
    1760 000001da 01C40000! ||$C$CON12||:   .bits   macSecurityPib+452,32
         000001de 00000000 
    1761                    ;******************************************************************************
    1762                    ;* CONSTANT TABLE                                                             *
    1763                    ;******************************************************************************
    1764 00000044                   .sect   ".text:MAC_MlmeGetSecurityReqSize"
    1765                            .align  4
    1766 00000044 00000001! ||$C$CON18||:   .bits   macSecurityPibTbl+1,32
    1767                    ;******************************************************************************
    1768                    ;* CONSTANT TABLE                                                             *
    1769                    ;******************************************************************************
    1770 00000132                   .sect   ".text:MAC_MlmeGetSecurityReq"
    1771                            .align  4
    1772 00000132 000046C0! ||$C$CON19||:   .bits   ICall_enterCriticalSection,32
         00000136 00000000 
    1773                            .align  4
    1774 00000136 00000000! ||$C$CON21||:   .bits   macSecurityPib,32
         0000013a 00000000 
    1775                            .align  4
    1776 0000013a 00000000! ||$C$CON22||:   .bits   ICall_leaveCriticalSection,32
         0000013e 00000000 
    1777                            .align  4
    1778 0000013e 06740000! ||$C$CON23||:   .bits   macSecurityPib+1652,32
         00000142 00000000 
    1779                            .align  4
    1780 00000142 01C40000! ||$C$CON24||:   .bits   macSecurityPib+452,32
         00000146 00000000 
    1781                            .align  4
    1782 00000146 00010000! ||$C$CON25||:   .bits   macSecurityPibTbl+1,32
         0000014a 00000000 
    1783                    ;******************************************************************************
    1784                    ;* CONSTANT TABLE                                                             *
    1785                    ;******************************************************************************
    1786 00000022                   .sect   ".text:MAC_MlmeGetPointerSecurityReq"
    1787                            .align  4
    1788 00000022 002446C0! ||$C$CON26||:   .bits   macSecurityPib+36,32
         00000026 00000000 
    1789                            .align  4
    1790 00000026 06740000! ||$C$CON28||:   .bits   macSecurityPib+1652,32
         0000002a 00000000 
    1791                            .align  4
    1792 0000002a 01C40000! ||$C$CON29||:   .bits   macSecurityPib+452,32
         0000002e 00000000 
    1793                    ;*****************************************************************************
    1794                    ;* UNDEFINED EXTERNAL REFERENCES                                             *
    1795                    ;*****************************************************************************
    1796                            .global osal_memcpy
    1797                            .global osal_memset
    1798                            .global ICall_enterCriticalSection
    1799                            .global ICall_leaveCriticalSection
TI ARM Assembler PC v16.9.4 Sat Nov 25 18:51:50 2017

Tools Copyright (c) 1996-2017 Texas Instruments Incorporated
C:\Users\Kevin\AppData\Local\Temp\{DC18D6BA-4494-45CB-997B-AC060EFC778A} PAGE   34

    1800                    
    1801                    ;******************************************************************************
    1802                    ;* BUILD ATTRIBUTES                                                           *
    1803                    ;******************************************************************************
    1804                            .battr "aeabi", Tag_File, 1, Tag_ABI_PCS_wchar_t(2)
    1805                            .battr "aeabi", Tag_File, 1, Tag_ABI_FP_rounding(0)
    1806                            .battr "aeabi", Tag_File, 1, Tag_ABI_FP_denormal(0)
    1807                            .battr "aeabi", Tag_File, 1, Tag_ABI_FP_exceptions(0)
    1808                            .battr "aeabi", Tag_File, 1, Tag_ABI_FP_number_model(1)
    1809                            .battr "aeabi", Tag_File, 1, Tag_ABI_enum_size(1)
    1810                            .battr "aeabi", Tag_File, 1, Tag_ABI_optimization_goals(0)
    1811                            .battr "aeabi", Tag_File, 1, Tag_ABI_FP_optimization_goals(0)
    1812                            .battr "TI", Tag_File, 1, Tag_Bitfield_layout(2)
    1813                            .battr "aeabi", Tag_File, 1, Tag_ABI_VFP_args(3)
    1814                            .battr "TI", Tag_File, 1, Tag_FP_interface(1)
    1815                    
    1816                    ;******************************************************************************
    1817                    ;* TYPE INFORMATION                                                           *
    1818                    ;******************************************************************************
    1819                    
    1820                    $C$DW$T$116     .dwtag  DW_TAG_enumeration_type
    1821                            .dwattr $C$DW$T$116, DW_AT_byte_size(0x01)
    1822                    $C$DW$81        .dwtag  DW_TAG_enumerator
    1823                            .dwattr $C$DW$81, DW_AT_name("ApiMac_addrType_none")
    1824                            .dwattr $C$DW$81, DW_AT_const_value(0x00)
    1825                            .dwattr $C$DW$81, DW_AT_decl_file("C:/Users/Kevin/workspace_v7/collector_cc1310lp/Application/
    1826                            .dwattr $C$DW$81, DW_AT_decl_line(0x189)
    1827                            .dwattr $C$DW$81, DW_AT_decl_column(0x05)
    1828                    
    1829                    $C$DW$82        .dwtag  DW_TAG_enumerator
    1830                            .dwattr $C$DW$82, DW_AT_name("ApiMac_addrType_short")
    1831                            .dwattr $C$DW$82, DW_AT_const_value(0x02)
    1832                            .dwattr $C$DW$82, DW_AT_decl_file("C:/Users/Kevin/workspace_v7/collector_cc1310lp/Application/
    1833                            .dwattr $C$DW$82, DW_AT_decl_line(0x18b)
    1834                            .dwattr $C$DW$82, DW_AT_decl_column(0x05)
    1835                    
    1836                    $C$DW$83        .dwtag  DW_TAG_enumerator
    1837                            .dwattr $C$DW$83, DW_AT_name("ApiMac_addrType_extended")
    1838                            .dwattr $C$DW$83, DW_AT_const_value(0x03)
    1839                            .dwattr $C$DW$83, DW_AT_decl_file("C:/Users/Kevin/workspace_v7/collector_cc1310lp/Application/
    1840                            .dwattr $C$DW$83, DW_AT_decl_line(0x18d)
    1841                            .dwattr $C$DW$83, DW_AT_decl_column(0x05)
    1842                    
    1843                            .dwattr $C$DW$T$116, DW_AT_decl_file("C:/Users/Kevin/workspace_v7/collector_cc1310lp/Applicati
    1844                            .dwattr $C$DW$T$116, DW_AT_decl_line(0x187)
    1845                            .dwattr $C$DW$T$116, DW_AT_decl_column(0x01)
    1846                            .dwendtag $C$DW$T$116
    1847                    
    1848                    $C$DW$T$117     .dwtag  DW_TAG_typedef
    1849                            .dwattr $C$DW$T$117, DW_AT_name("ApiMac_addrType_t")
    1850                            .dwattr $C$DW$T$117, DW_AT_type(*$C$DW$T$116)
    1851                            .dwattr $C$DW$T$117, DW_AT_language(DW_LANG_C)
    1852                            .dwattr $C$DW$T$117, DW_AT_decl_file("C:/Users/Kevin/workspace_v7/collector_cc1310lp/Applicati
    1853                            .dwattr $C$DW$T$117, DW_AT_decl_line(0x18e)
    1854                            .dwattr $C$DW$T$117, DW_AT_decl_column(0x03)
TI ARM Assembler PC v16.9.4 Sat Nov 25 18:51:50 2017

Tools Copyright (c) 1996-2017 Texas Instruments Incorporated
C:\Users\Kevin\AppData\Local\Temp\{DC18D6BA-4494-45CB-997B-AC060EFC778A} PAGE   35

    1855                    
    1856                    
    1857                    $C$DW$T$119     .dwtag  DW_TAG_enumeration_type
    1858                            .dwattr $C$DW$T$119, DW_AT_byte_size(0x01)
    1859                    $C$DW$84        .dwtag  DW_TAG_enumerator
    1860                            .dwattr $C$DW$84, DW_AT_name("ApiMac_beaconType_normal")
    1861                            .dwattr $C$DW$84, DW_AT_const_value(0x00)
    1862                            .dwattr $C$DW$84, DW_AT_decl_file("C:/Users/Kevin/workspace_v7/collector_cc1310lp/Application/
    1863                            .dwattr $C$DW$84, DW_AT_decl_line(0x194)
    1864                            .dwattr $C$DW$84, DW_AT_decl_column(0x05)
    1865                    
    1866                    $C$DW$85        .dwtag  DW_TAG_enumerator
    1867                            .dwattr $C$DW$85, DW_AT_name("ApiMac_beaconType_enhanced")
    1868                            .dwattr $C$DW$85, DW_AT_const_value(0x01)
    1869                            .dwattr $C$DW$85, DW_AT_decl_file("C:/Users/Kevin/workspace_v7/collector_cc1310lp/Application/
    1870                            .dwattr $C$DW$85, DW_AT_decl_line(0x196)
    1871                            .dwattr $C$DW$85, DW_AT_decl_column(0x05)
    1872                    
    1873                            .dwattr $C$DW$T$119, DW_AT_decl_file("C:/Users/Kevin/workspace_v7/collector_cc1310lp/Applicati
    1874                            .dwattr $C$DW$T$119, DW_AT_decl_line(0x192)
    1875                            .dwattr $C$DW$T$119, DW_AT_decl_column(0x01)
    1876                            .dwendtag $C$DW$T$119
    1877                    
    1878                    $C$DW$T$120     .dwtag  DW_TAG_typedef
    1879                            .dwattr $C$DW$T$120, DW_AT_name("ApiMac_beaconType_t")
    1880                            .dwattr $C$DW$T$120, DW_AT_type(*$C$DW$T$119)
    1881                            .dwattr $C$DW$T$120, DW_AT_language(DW_LANG_C)
    1882                            .dwattr $C$DW$T$120, DW_AT_decl_file("C:/Users/Kevin/workspace_v7/collector_cc1310lp/Applicati
    1883                            .dwattr $C$DW$T$120, DW_AT_decl_line(0x197)
    1884                            .dwattr $C$DW$T$120, DW_AT_decl_column(0x03)
    1885                    
    1886                    
    1887                    $C$DW$T$360     .dwtag  DW_TAG_enumeration_type
    1888                            .dwattr $C$DW$T$360, DW_AT_byte_size(0x01)
    1889                    $C$DW$86        .dwtag  DW_TAG_enumerator
    1890                            .dwattr $C$DW$86, DW_AT_name("ApiMac_status_success")
    1891                            .dwattr $C$DW$86, DW_AT_const_value(0x00)
    1892                            .dwattr $C$DW$86, DW_AT_decl_file("C:/Users/Kevin/workspace_v7/collector_cc1310lp/Application/
    1893                            .dwattr $C$DW$86, DW_AT_decl_line(0x1b7)
    1894                            .dwattr $C$DW$86, DW_AT_decl_column(0x05)
    1895                    
    1896                    $C$DW$87        .dwtag  DW_TAG_enumerator
    1897                            .dwattr $C$DW$87, DW_AT_name("ApiMac_status_subSystemError")
    1898                            .dwattr $C$DW$87, DW_AT_const_value(0x25)
    1899                            .dwattr $C$DW$87, DW_AT_decl_file("C:/Users/Kevin/workspace_v7/collector_cc1310lp/Application/
    1900                            .dwattr $C$DW$87, DW_AT_decl_line(0x1b9)
    1901                            .dwattr $C$DW$87, DW_AT_decl_column(0x05)
    1902                    
    1903                    $C$DW$88        .dwtag  DW_TAG_enumerator
    1904                            .dwattr $C$DW$88, DW_AT_name("ApiMac_status_commandIDError")
    1905                            .dwattr $C$DW$88, DW_AT_const_value(0x26)
    1906                            .dwattr $C$DW$88, DW_AT_decl_file("C:/Users/Kevin/workspace_v7/collector_cc1310lp/Application/
    1907                            .dwattr $C$DW$88, DW_AT_decl_line(0x1bb)
    1908                            .dwattr $C$DW$88, DW_AT_decl_column(0x05)
    1909                    
TI ARM Assembler PC v16.9.4 Sat Nov 25 18:51:50 2017

Tools Copyright (c) 1996-2017 Texas Instruments Incorporated
C:\Users\Kevin\AppData\Local\Temp\{DC18D6BA-4494-45CB-997B-AC060EFC778A} PAGE   36

    1910                    $C$DW$89        .dwtag  DW_TAG_enumerator
    1911                            .dwattr $C$DW$89, DW_AT_name("ApiMac_status_lengthError")
    1912                            .dwattr $C$DW$89, DW_AT_const_value(0x27)
    1913                            .dwattr $C$DW$89, DW_AT_decl_file("C:/Users/Kevin/workspace_v7/collector_cc1310lp/Application/
    1914                            .dwattr $C$DW$89, DW_AT_decl_line(0x1bd)
    1915                            .dwattr $C$DW$89, DW_AT_decl_column(0x05)
    1916                    
    1917                    $C$DW$90        .dwtag  DW_TAG_enumerator
    1918                            .dwattr $C$DW$90, DW_AT_name("ApiMac_status_unsupportedType")
    1919                            .dwattr $C$DW$90, DW_AT_const_value(0x28)
    1920                            .dwattr $C$DW$90, DW_AT_decl_file("C:/Users/Kevin/workspace_v7/collector_cc1310lp/Application/
    1921                            .dwattr $C$DW$90, DW_AT_decl_line(0x1bf)
    1922                            .dwattr $C$DW$90, DW_AT_decl_column(0x05)
    1923                    
    1924                    $C$DW$91        .dwtag  DW_TAG_enumerator
    1925                            .dwattr $C$DW$91, DW_AT_name("ApiMac_status_autoAckPendingAllOn")
    1926                            .dwattr $C$DW$91, DW_AT_const_value(0xfe)
    1927                            .dwattr $C$DW$91, DW_AT_decl_file("C:/Users/Kevin/workspace_v7/collector_cc1310lp/Application/
    1928                            .dwattr $C$DW$91, DW_AT_decl_line(0x1c1)
    1929                            .dwattr $C$DW$91, DW_AT_decl_column(0x05)
    1930                    
    1931                    $C$DW$92        .dwtag  DW_TAG_enumerator
    1932                            .dwattr $C$DW$92, DW_AT_name("ApiMac_status_autoAckPendingAllOff")
    1933                            .dwattr $C$DW$92, DW_AT_const_value(0xff)
    1934                            .dwattr $C$DW$92, DW_AT_decl_file("C:/Users/Kevin/workspace_v7/collector_cc1310lp/Application/
    1935                            .dwattr $C$DW$92, DW_AT_decl_line(0x1c3)
    1936                            .dwattr $C$DW$92, DW_AT_decl_column(0x05)
    1937                    
    1938                    $C$DW$93        .dwtag  DW_TAG_enumerator
    1939                            .dwattr $C$DW$93, DW_AT_name("ApiMac_status_beaconLoss")
    1940                            .dwattr $C$DW$93, DW_AT_const_value(0xe0)
    1941                            .dwattr $C$DW$93, DW_AT_decl_file("C:/Users/Kevin/workspace_v7/collector_cc1310lp/Application/
    1942                            .dwattr $C$DW$93, DW_AT_decl_line(0x1c5)
    1943                            .dwattr $C$DW$93, DW_AT_decl_column(0x05)
    1944                    
    1945                    $C$DW$94        .dwtag  DW_TAG_enumerator
    1946                            .dwattr $C$DW$94, DW_AT_name("ApiMac_status_channelAccessFailure")
    1947                            .dwattr $C$DW$94, DW_AT_const_value(0xe1)
    1948                            .dwattr $C$DW$94, DW_AT_decl_file("C:/Users/Kevin/workspace_v7/collector_cc1310lp/Application/
    1949                            .dwattr $C$DW$94, DW_AT_decl_line(0x1c9)
    1950                            .dwattr $C$DW$94, DW_AT_decl_column(0x05)
    1951                    
    1952                    $C$DW$95        .dwtag  DW_TAG_enumerator
    1953                            .dwattr $C$DW$95, DW_AT_name("ApiMac_status_counterError")
    1954                            .dwattr $C$DW$95, DW_AT_const_value(0xdb)
    1955                            .dwattr $C$DW$95, DW_AT_decl_file("C:/Users/Kevin/workspace_v7/collector_cc1310lp/Application/
    1956                            .dwattr $C$DW$95, DW_AT_decl_line(0x1ce)
    1957                            .dwattr $C$DW$95, DW_AT_decl_column(0x05)
    1958                    
    1959                    $C$DW$96        .dwtag  DW_TAG_enumerator
    1960                            .dwattr $C$DW$96, DW_AT_name("ApiMac_status_denied")
    1961                            .dwattr $C$DW$96, DW_AT_const_value(0xe2)
    1962                            .dwattr $C$DW$96, DW_AT_decl_file("C:/Users/Kevin/workspace_v7/collector_cc1310lp/Application/
    1963                            .dwattr $C$DW$96, DW_AT_decl_line(0x1d0)
    1964                            .dwattr $C$DW$96, DW_AT_decl_column(0x05)
TI ARM Assembler PC v16.9.4 Sat Nov 25 18:51:50 2017

Tools Copyright (c) 1996-2017 Texas Instruments Incorporated
C:\Users\Kevin\AppData\Local\Temp\{DC18D6BA-4494-45CB-997B-AC060EFC778A} PAGE   37

    1965                    
    1966                    $C$DW$97        .dwtag  DW_TAG_enumerator
    1967                            .dwattr $C$DW$97, DW_AT_name("ApiMac_status_disabledTrxFailure")
    1968                            .dwattr $C$DW$97, DW_AT_const_value(0xe3)
    1969                            .dwattr $C$DW$97, DW_AT_decl_file("C:/Users/Kevin/workspace_v7/collector_cc1310lp/Application/
    1970                            .dwattr $C$DW$97, DW_AT_decl_line(0x1d2)
    1971                            .dwattr $C$DW$97, DW_AT_decl_column(0x05)
    1972                    
    1973                    $C$DW$98        .dwtag  DW_TAG_enumerator
    1974                            .dwattr $C$DW$98, DW_AT_name("ApiMac_status_frameTooLong")
    1975                            .dwattr $C$DW$98, DW_AT_const_value(0xe5)
    1976                            .dwattr $C$DW$98, DW_AT_decl_file("C:/Users/Kevin/workspace_v7/collector_cc1310lp/Application/
    1977                            .dwattr $C$DW$98, DW_AT_decl_line(0x1d7)
    1978                            .dwattr $C$DW$98, DW_AT_decl_column(0x05)
    1979                    
    1980                    $C$DW$99        .dwtag  DW_TAG_enumerator
    1981                            .dwattr $C$DW$99, DW_AT_name("ApiMac_status_improperKeyType")
    1982                            .dwattr $C$DW$99, DW_AT_const_value(0xdc)
    1983                            .dwattr $C$DW$99, DW_AT_decl_file("C:/Users/Kevin/workspace_v7/collector_cc1310lp/Application/
    1984                            .dwattr $C$DW$99, DW_AT_decl_line(0x1dc)
    1985                            .dwattr $C$DW$99, DW_AT_decl_column(0x05)
    1986                    
    1987                    $C$DW$100       .dwtag  DW_TAG_enumerator
    1988                            .dwattr $C$DW$100, DW_AT_name("ApiMac_status_improperSecurityLevel")
    1989                            .dwattr $C$DW$100, DW_AT_const_value(0xdd)
    1990                            .dwattr $C$DW$100, DW_AT_decl_file("C:/Users/Kevin/workspace_v7/collector_cc1310lp/Application
    1991                            .dwattr $C$DW$100, DW_AT_decl_line(0x1e1)
    1992                            .dwattr $C$DW$100, DW_AT_decl_column(0x05)
    1993                    
    1994                    $C$DW$101       .dwtag  DW_TAG_enumerator
    1995                            .dwattr $C$DW$101, DW_AT_name("ApiMac_status_invalidAddress")
    1996                            .dwattr $C$DW$101, DW_AT_const_value(0xf5)
    1997                            .dwattr $C$DW$101, DW_AT_decl_file("C:/Users/Kevin/workspace_v7/collector_cc1310lp/Application
    1998                            .dwattr $C$DW$101, DW_AT_decl_line(0x1e6)
    1999                            .dwattr $C$DW$101, DW_AT_decl_column(0x05)
    2000                    
    2001                    $C$DW$102       .dwtag  DW_TAG_enumerator
    2002                            .dwattr $C$DW$102, DW_AT_name("ApiMac_status_invalidGts")
    2003                            .dwattr $C$DW$102, DW_AT_const_value(0xe6)
    2004                            .dwattr $C$DW$102, DW_AT_decl_file("C:/Users/Kevin/workspace_v7/collector_cc1310lp/Application
    2005                            .dwattr $C$DW$102, DW_AT_decl_line(0x1e8)
    2006                            .dwattr $C$DW$102, DW_AT_decl_column(0x05)
    2007                    
    2008                    $C$DW$103       .dwtag  DW_TAG_enumerator
    2009                            .dwattr $C$DW$103, DW_AT_name("ApiMac_status_invalidHandle")
    2010                            .dwattr $C$DW$103, DW_AT_const_value(0xe7)
    2011                            .dwattr $C$DW$103, DW_AT_decl_file("C:/Users/Kevin/workspace_v7/collector_cc1310lp/Application
    2012                            .dwattr $C$DW$103, DW_AT_decl_line(0x1ea)
    2013                            .dwattr $C$DW$103, DW_AT_decl_column(0x05)
    2014                    
    2015                    $C$DW$104       .dwtag  DW_TAG_enumerator
    2016                            .dwattr $C$DW$104, DW_AT_name("ApiMac_status_invalidIndex")
    2017                            .dwattr $C$DW$104, DW_AT_const_value(0xf9)
    2018                            .dwattr $C$DW$104, DW_AT_decl_file("C:/Users/Kevin/workspace_v7/collector_cc1310lp/Application
    2019                            .dwattr $C$DW$104, DW_AT_decl_line(0x1ec)
TI ARM Assembler PC v16.9.4 Sat Nov 25 18:51:50 2017

Tools Copyright (c) 1996-2017 Texas Instruments Incorporated
C:\Users\Kevin\AppData\Local\Temp\{DC18D6BA-4494-45CB-997B-AC060EFC778A} PAGE   38

    2020                            .dwattr $C$DW$104, DW_AT_decl_column(0x05)
    2021                    
    2022                    $C$DW$105       .dwtag  DW_TAG_enumerator
    2023                            .dwattr $C$DW$105, DW_AT_name("ApiMac_status_invalidParameter")
    2024                            .dwattr $C$DW$105, DW_AT_const_value(0xe8)
    2025                            .dwattr $C$DW$105, DW_AT_decl_file("C:/Users/Kevin/workspace_v7/collector_cc1310lp/Application
    2026                            .dwattr $C$DW$105, DW_AT_decl_line(0x1ee)
    2027                            .dwattr $C$DW$105, DW_AT_decl_column(0x05)
    2028                    
    2029                    $C$DW$106       .dwtag  DW_TAG_enumerator
    2030                            .dwattr $C$DW$106, DW_AT_name("ApiMac_status_limitReached")
    2031                            .dwattr $C$DW$106, DW_AT_const_value(0xfa)
    2032                            .dwattr $C$DW$106, DW_AT_decl_file("C:/Users/Kevin/workspace_v7/collector_cc1310lp/Application
    2033                            .dwattr $C$DW$106, DW_AT_decl_line(0x1f3)
    2034                            .dwattr $C$DW$106, DW_AT_decl_column(0x05)
    2035                    
    2036                    $C$DW$107       .dwtag  DW_TAG_enumerator
    2037                            .dwattr $C$DW$107, DW_AT_name("ApiMac_status_noAck")
    2038                            .dwattr $C$DW$107, DW_AT_const_value(0xe9)
    2039                            .dwattr $C$DW$107, DW_AT_decl_file("C:/Users/Kevin/workspace_v7/collector_cc1310lp/Application
    2040                            .dwattr $C$DW$107, DW_AT_decl_line(0x1f8)
    2041                            .dwattr $C$DW$107, DW_AT_decl_column(0x05)
    2042                    
    2043                    $C$DW$108       .dwtag  DW_TAG_enumerator
    2044                            .dwattr $C$DW$108, DW_AT_name("ApiMac_status_noBeacon")
    2045                            .dwattr $C$DW$108, DW_AT_const_value(0xea)
    2046                            .dwattr $C$DW$108, DW_AT_decl_file("C:/Users/Kevin/workspace_v7/collector_cc1310lp/Application
    2047                            .dwattr $C$DW$108, DW_AT_decl_line(0x1fd)
    2048                            .dwattr $C$DW$108, DW_AT_decl_column(0x05)
    2049                    
    2050                    $C$DW$109       .dwtag  DW_TAG_enumerator
    2051                            .dwattr $C$DW$109, DW_AT_name("ApiMac_status_noData")
    2052                            .dwattr $C$DW$109, DW_AT_const_value(0xeb)
    2053                            .dwattr $C$DW$109, DW_AT_decl_file("C:/Users/Kevin/workspace_v7/collector_cc1310lp/Application
    2054                            .dwattr $C$DW$109, DW_AT_decl_line(0x202)
    2055                            .dwattr $C$DW$109, DW_AT_decl_column(0x05)
    2056                    
    2057                    $C$DW$110       .dwtag  DW_TAG_enumerator
    2058                            .dwattr $C$DW$110, DW_AT_name("ApiMac_status_noShortAddress")
    2059                            .dwattr $C$DW$110, DW_AT_const_value(0xec)
    2060                            .dwattr $C$DW$110, DW_AT_decl_file("C:/Users/Kevin/workspace_v7/collector_cc1310lp/Application
    2061                            .dwattr $C$DW$110, DW_AT_decl_line(0x204)
    2062                            .dwattr $C$DW$110, DW_AT_decl_column(0x05)
    2063                    
    2064                    $C$DW$111       .dwtag  DW_TAG_enumerator
    2065                            .dwattr $C$DW$111, DW_AT_name("ApiMac_status_onTimeTooLong")
    2066                            .dwattr $C$DW$111, DW_AT_const_value(0xf6)
    2067                            .dwattr $C$DW$111, DW_AT_decl_file("C:/Users/Kevin/workspace_v7/collector_cc1310lp/Application
    2068                            .dwattr $C$DW$111, DW_AT_decl_line(0x206)
    2069                            .dwattr $C$DW$111, DW_AT_decl_column(0x05)
    2070                    
    2071                    $C$DW$112       .dwtag  DW_TAG_enumerator
    2072                            .dwattr $C$DW$112, DW_AT_name("ApiMac_status_outOfCap")
    2073                            .dwattr $C$DW$112, DW_AT_const_value(0xed)
    2074                            .dwattr $C$DW$112, DW_AT_decl_file("C:/Users/Kevin/workspace_v7/collector_cc1310lp/Application
TI ARM Assembler PC v16.9.4 Sat Nov 25 18:51:50 2017

Tools Copyright (c) 1996-2017 Texas Instruments Incorporated
C:\Users\Kevin\AppData\Local\Temp\{DC18D6BA-4494-45CB-997B-AC060EFC778A} PAGE   39

    2075                            .dwattr $C$DW$112, DW_AT_decl_line(0x208)
    2076                            .dwattr $C$DW$112, DW_AT_decl_column(0x05)
    2077                    
    2078                    $C$DW$113       .dwtag  DW_TAG_enumerator
    2079                            .dwattr $C$DW$113, DW_AT_name("ApiMac_status_panIdConflict")
    2080                            .dwattr $C$DW$113, DW_AT_const_value(0xee)
    2081                            .dwattr $C$DW$113, DW_AT_decl_file("C:/Users/Kevin/workspace_v7/collector_cc1310lp/Application
    2082                            .dwattr $C$DW$113, DW_AT_decl_line(0x20d)
    2083                            .dwattr $C$DW$113, DW_AT_decl_column(0x05)
    2084                    
    2085                    $C$DW$114       .dwtag  DW_TAG_enumerator
    2086                            .dwattr $C$DW$114, DW_AT_name("ApiMac_status_pastTime")
    2087                            .dwattr $C$DW$114, DW_AT_const_value(0xf7)
    2088                            .dwattr $C$DW$114, DW_AT_decl_file("C:/Users/Kevin/workspace_v7/collector_cc1310lp/Application
    2089                            .dwattr $C$DW$114, DW_AT_decl_line(0x20f)
    2090                            .dwattr $C$DW$114, DW_AT_decl_column(0x05)
    2091                    
    2092                    $C$DW$115       .dwtag  DW_TAG_enumerator
    2093                            .dwattr $C$DW$115, DW_AT_name("ApiMac_status_readOnly")
    2094                            .dwattr $C$DW$115, DW_AT_const_value(0xfb)
    2095                            .dwattr $C$DW$115, DW_AT_decl_file("C:/Users/Kevin/workspace_v7/collector_cc1310lp/Application
    2096                            .dwattr $C$DW$115, DW_AT_decl_line(0x211)
    2097                            .dwattr $C$DW$115, DW_AT_decl_column(0x05)
    2098                    
    2099                    $C$DW$116       .dwtag  DW_TAG_enumerator
    2100                            .dwattr $C$DW$116, DW_AT_name("ApiMac_status_realignment")
    2101                            .dwattr $C$DW$116, DW_AT_const_value(0xef)
    2102                            .dwattr $C$DW$116, DW_AT_decl_file("C:/Users/Kevin/workspace_v7/collector_cc1310lp/Application
    2103                            .dwattr $C$DW$116, DW_AT_decl_line(0x213)
    2104                            .dwattr $C$DW$116, DW_AT_decl_column(0x05)
    2105                    
    2106                    $C$DW$117       .dwtag  DW_TAG_enumerator
    2107                            .dwattr $C$DW$117, DW_AT_name("ApiMac_status_scanInProgress")
    2108                            .dwattr $C$DW$117, DW_AT_const_value(0xfc)
    2109                            .dwattr $C$DW$117, DW_AT_decl_file("C:/Users/Kevin/workspace_v7/collector_cc1310lp/Application
    2110                            .dwattr $C$DW$117, DW_AT_decl_line(0x215)
    2111                            .dwattr $C$DW$117, DW_AT_decl_column(0x05)
    2112                    
    2113                    $C$DW$118       .dwtag  DW_TAG_enumerator
    2114                            .dwattr $C$DW$118, DW_AT_name("ApiMac_status_securityError")
    2115                            .dwattr $C$DW$118, DW_AT_const_value(0xe4)
    2116                            .dwattr $C$DW$118, DW_AT_decl_file("C:/Users/Kevin/workspace_v7/collector_cc1310lp/Application
    2117                            .dwattr $C$DW$118, DW_AT_decl_line(0x217)
    2118                            .dwattr $C$DW$118, DW_AT_decl_column(0x05)
    2119                    
    2120                    $C$DW$119       .dwtag  DW_TAG_enumerator
    2121                            .dwattr $C$DW$119, DW_AT_name("ApiMac_status_superframeOverlap")
    2122                            .dwattr $C$DW$119, DW_AT_const_value(0xfd)
    2123                            .dwattr $C$DW$119, DW_AT_decl_file("C:/Users/Kevin/workspace_v7/collector_cc1310lp/Application
    2124                            .dwattr $C$DW$119, DW_AT_decl_line(0x219)
    2125                            .dwattr $C$DW$119, DW_AT_decl_column(0x05)
    2126                    
    2127                    $C$DW$120       .dwtag  DW_TAG_enumerator
    2128                            .dwattr $C$DW$120, DW_AT_name("ApiMac_status_trackingOff")
    2129                            .dwattr $C$DW$120, DW_AT_const_value(0xf8)
TI ARM Assembler PC v16.9.4 Sat Nov 25 18:51:50 2017

Tools Copyright (c) 1996-2017 Texas Instruments Incorporated
C:\Users\Kevin\AppData\Local\Temp\{DC18D6BA-4494-45CB-997B-AC060EFC778A} PAGE   40

    2130                            .dwattr $C$DW$120, DW_AT_decl_file("C:/Users/Kevin/workspace_v7/collector_cc1310lp/Application
    2131                            .dwattr $C$DW$120, DW_AT_decl_line(0x21e)
    2132                            .dwattr $C$DW$120, DW_AT_decl_column(0x05)
    2133                    
    2134                    $C$DW$121       .dwtag  DW_TAG_enumerator
    2135                            .dwattr $C$DW$121, DW_AT_name("ApiMac_status_transactionExpired")
    2136                            .dwattr $C$DW$121, DW_AT_const_value(0xf0)
    2137                            .dwattr $C$DW$121, DW_AT_decl_file("C:/Users/Kevin/workspace_v7/collector_cc1310lp/Application
    2138                            .dwattr $C$DW$121, DW_AT_decl_line(0x224)
    2139                            .dwattr $C$DW$121, DW_AT_decl_column(0x05)
    2140                    
    2141                    $C$DW$122       .dwtag  DW_TAG_enumerator
    2142                            .dwattr $C$DW$122, DW_AT_name("ApiMac_status_transactionOverflow")
    2143                            .dwattr $C$DW$122, DW_AT_const_value(0xf1)
    2144                            .dwattr $C$DW$122, DW_AT_decl_file("C:/Users/Kevin/workspace_v7/collector_cc1310lp/Application
    2145                            .dwattr $C$DW$122, DW_AT_decl_line(0x226)
    2146                            .dwattr $C$DW$122, DW_AT_decl_column(0x05)
    2147                    
    2148                    $C$DW$123       .dwtag  DW_TAG_enumerator
    2149                            .dwattr $C$DW$123, DW_AT_name("ApiMac_status_txActive")
    2150                            .dwattr $C$DW$123, DW_AT_const_value(0xf2)
    2151                            .dwattr $C$DW$123, DW_AT_decl_file("C:/Users/Kevin/workspace_v7/collector_cc1310lp/Application
    2152                            .dwattr $C$DW$123, DW_AT_decl_line(0x228)
    2153                            .dwattr $C$DW$123, DW_AT_decl_column(0x05)
    2154                    
    2155                    $C$DW$124       .dwtag  DW_TAG_enumerator
    2156                            .dwattr $C$DW$124, DW_AT_name("ApiMac_status_unavailableKey")
    2157                            .dwattr $C$DW$124, DW_AT_const_value(0xf3)
    2158                            .dwattr $C$DW$124, DW_AT_decl_file("C:/Users/Kevin/workspace_v7/collector_cc1310lp/Application
    2159                            .dwattr $C$DW$124, DW_AT_decl_line(0x22d)
    2160                            .dwattr $C$DW$124, DW_AT_decl_column(0x05)
    2161                    
    2162                    $C$DW$125       .dwtag  DW_TAG_enumerator
    2163                            .dwattr $C$DW$125, DW_AT_name("ApiMac_status_unsupportedAttribute")
    2164                            .dwattr $C$DW$125, DW_AT_const_value(0xf4)
    2165                            .dwattr $C$DW$125, DW_AT_decl_file("C:/Users/Kevin/workspace_v7/collector_cc1310lp/Application
    2166                            .dwattr $C$DW$125, DW_AT_decl_line(0x22f)
    2167                            .dwattr $C$DW$125, DW_AT_decl_column(0x05)
    2168                    
    2169                    $C$DW$126       .dwtag  DW_TAG_enumerator
    2170                            .dwattr $C$DW$126, DW_AT_name("ApiMac_status_unsupportedLegacy")
    2171                            .dwattr $C$DW$126, DW_AT_const_value(0xde)
    2172                            .dwattr $C$DW$126, DW_AT_decl_file("C:/Users/Kevin/workspace_v7/collector_cc1310lp/Application
    2173                            .dwattr $C$DW$126, DW_AT_decl_line(0x234)
    2174                            .dwattr $C$DW$126, DW_AT_decl_column(0x05)
    2175                    
    2176                    $C$DW$127       .dwtag  DW_TAG_enumerator
    2177                            .dwattr $C$DW$127, DW_AT_name("ApiMac_status_unsupportedSecurity")
    2178                            .dwattr $C$DW$127, DW_AT_const_value(0xdf)
    2179                            .dwattr $C$DW$127, DW_AT_decl_file("C:/Users/Kevin/workspace_v7/collector_cc1310lp/Application
    2180                            .dwattr $C$DW$127, DW_AT_decl_line(0x236)
    2181                            .dwattr $C$DW$127, DW_AT_decl_column(0x05)
    2182                    
    2183                    $C$DW$128       .dwtag  DW_TAG_enumerator
    2184                            .dwattr $C$DW$128, DW_AT_name("ApiMac_status_unsupported")
TI ARM Assembler PC v16.9.4 Sat Nov 25 18:51:50 2017

Tools Copyright (c) 1996-2017 Texas Instruments Incorporated
C:\Users\Kevin\AppData\Local\Temp\{DC18D6BA-4494-45CB-997B-AC060EFC778A} PAGE   41

    2185                            .dwattr $C$DW$128, DW_AT_const_value(0x18)
    2186                            .dwattr $C$DW$128, DW_AT_decl_file("C:/Users/Kevin/workspace_v7/collector_cc1310lp/Application
    2187                            .dwattr $C$DW$128, DW_AT_decl_line(0x238)
    2188                            .dwattr $C$DW$128, DW_AT_decl_column(0x05)
    2189                    
    2190                    $C$DW$129       .dwtag  DW_TAG_enumerator
    2191                            .dwattr $C$DW$129, DW_AT_name("ApiMac_status_badState")
    2192                            .dwattr $C$DW$129, DW_AT_const_value(0x19)
    2193                            .dwattr $C$DW$129, DW_AT_decl_file("C:/Users/Kevin/workspace_v7/collector_cc1310lp/Application
    2194                            .dwattr $C$DW$129, DW_AT_decl_line(0x23a)
    2195                            .dwattr $C$DW$129, DW_AT_decl_column(0x05)
    2196                    
    2197                    $C$DW$130       .dwtag  DW_TAG_enumerator
    2198                            .dwattr $C$DW$130, DW_AT_name("ApiMac_status_noResources")
    2199                            .dwattr $C$DW$130, DW_AT_const_value(0x1a)
    2200                            .dwattr $C$DW$130, DW_AT_decl_file("C:/Users/Kevin/workspace_v7/collector_cc1310lp/Application
    2201                            .dwattr $C$DW$130, DW_AT_decl_line(0x23f)
    2202                            .dwattr $C$DW$130, DW_AT_decl_column(0x05)
    2203                    
    2204                    $C$DW$131       .dwtag  DW_TAG_enumerator
    2205                            .dwattr $C$DW$131, DW_AT_name("ApiMac_status_ackPending")
    2206                            .dwattr $C$DW$131, DW_AT_const_value(0x1b)
    2207                            .dwattr $C$DW$131, DW_AT_decl_file("C:/Users/Kevin/workspace_v7/collector_cc1310lp/Application
    2208                            .dwattr $C$DW$131, DW_AT_decl_line(0x241)
    2209                            .dwattr $C$DW$131, DW_AT_decl_column(0x05)
    2210                    
    2211                    $C$DW$132       .dwtag  DW_TAG_enumerator
    2212                            .dwattr $C$DW$132, DW_AT_name("ApiMac_status_noTime")
    2213                            .dwattr $C$DW$132, DW_AT_const_value(0x1c)
    2214                            .dwattr $C$DW$132, DW_AT_decl_file("C:/Users/Kevin/workspace_v7/collector_cc1310lp/Application
    2215                            .dwattr $C$DW$132, DW_AT_decl_line(0x243)
    2216                            .dwattr $C$DW$132, DW_AT_decl_column(0x05)
    2217                    
    2218                    $C$DW$133       .dwtag  DW_TAG_enumerator
    2219                            .dwattr $C$DW$133, DW_AT_name("ApiMac_status_txAborted")
    2220                            .dwattr $C$DW$133, DW_AT_const_value(0x1d)
    2221                            .dwattr $C$DW$133, DW_AT_decl_file("C:/Users/Kevin/workspace_v7/collector_cc1310lp/Application
    2222                            .dwattr $C$DW$133, DW_AT_decl_line(0x245)
    2223                            .dwattr $C$DW$133, DW_AT_decl_column(0x05)
    2224                    
    2225                    $C$DW$134       .dwtag  DW_TAG_enumerator
    2226                            .dwattr $C$DW$134, DW_AT_name("ApiMac_status_duplicateEntry")
    2227                            .dwattr $C$DW$134, DW_AT_const_value(0x1e)
    2228                            .dwattr $C$DW$134, DW_AT_decl_file("C:/Users/Kevin/workspace_v7/collector_cc1310lp/Application
    2229                            .dwattr $C$DW$134, DW_AT_decl_line(0x24a)
    2230                            .dwattr $C$DW$134, DW_AT_decl_column(0x05)
    2231                    
    2232                    $C$DW$135       .dwtag  DW_TAG_enumerator
    2233                            .dwattr $C$DW$135, DW_AT_name("ApiMac_status_fhError")
    2234                            .dwattr $C$DW$135, DW_AT_const_value(0x61)
    2235                            .dwattr $C$DW$135, DW_AT_decl_file("C:/Users/Kevin/workspace_v7/collector_cc1310lp/Application
    2236                            .dwattr $C$DW$135, DW_AT_decl_line(0x24c)
    2237                            .dwattr $C$DW$135, DW_AT_decl_column(0x05)
    2238                    
    2239                    $C$DW$136       .dwtag  DW_TAG_enumerator
TI ARM Assembler PC v16.9.4 Sat Nov 25 18:51:50 2017

Tools Copyright (c) 1996-2017 Texas Instruments Incorporated
C:\Users\Kevin\AppData\Local\Temp\{DC18D6BA-4494-45CB-997B-AC060EFC778A} PAGE   42

    2240                            .dwattr $C$DW$136, DW_AT_name("ApiMac_status_fhIeNotSupported")
    2241                            .dwattr $C$DW$136, DW_AT_const_value(0x62)
    2242                            .dwattr $C$DW$136, DW_AT_decl_file("C:/Users/Kevin/workspace_v7/collector_cc1310lp/Application
    2243                            .dwattr $C$DW$136, DW_AT_decl_line(0x24e)
    2244                            .dwattr $C$DW$136, DW_AT_decl_column(0x05)
    2245                    
    2246                    $C$DW$137       .dwtag  DW_TAG_enumerator
    2247                            .dwattr $C$DW$137, DW_AT_name("ApiMac_status_fhNotInAsync")
    2248                            .dwattr $C$DW$137, DW_AT_const_value(0x63)
    2249                            .dwattr $C$DW$137, DW_AT_decl_file("C:/Users/Kevin/workspace_v7/collector_cc1310lp/Application
    2250                            .dwattr $C$DW$137, DW_AT_decl_line(0x250)
    2251                            .dwattr $C$DW$137, DW_AT_decl_column(0x05)
    2252                    
    2253                    $C$DW$138       .dwtag  DW_TAG_enumerator
    2254                            .dwattr $C$DW$138, DW_AT_name("ApiMac_status_fhNotInNeighborTable")
    2255                            .dwattr $C$DW$138, DW_AT_const_value(0x64)
    2256                            .dwattr $C$DW$138, DW_AT_decl_file("C:/Users/Kevin/workspace_v7/collector_cc1310lp/Application
    2257                            .dwattr $C$DW$138, DW_AT_decl_line(0x252)
    2258                            .dwattr $C$DW$138, DW_AT_decl_column(0x05)
    2259                    
    2260                    $C$DW$139       .dwtag  DW_TAG_enumerator
    2261                            .dwattr $C$DW$139, DW_AT_name("ApiMac_status_fhOutSlot")
    2262                            .dwattr $C$DW$139, DW_AT_const_value(0x65)
    2263                            .dwattr $C$DW$139, DW_AT_decl_file("C:/Users/Kevin/workspace_v7/collector_cc1310lp/Application
    2264                            .dwattr $C$DW$139, DW_AT_decl_line(0x254)
    2265                            .dwattr $C$DW$139, DW_AT_decl_column(0x05)
    2266                    
    2267                    $C$DW$140       .dwtag  DW_TAG_enumerator
    2268                            .dwattr $C$DW$140, DW_AT_name("ApiMac_status_fhInvalidAddress")
    2269                            .dwattr $C$DW$140, DW_AT_const_value(0x66)
    2270                            .dwattr $C$DW$140, DW_AT_decl_file("C:/Users/Kevin/workspace_v7/collector_cc1310lp/Application
    2271                            .dwattr $C$DW$140, DW_AT_decl_line(0x256)
    2272                            .dwattr $C$DW$140, DW_AT_decl_column(0x05)
    2273                    
    2274                    $C$DW$141       .dwtag  DW_TAG_enumerator
    2275                            .dwattr $C$DW$141, DW_AT_name("ApiMac_status_fhIeFormatInvalid")
    2276                            .dwattr $C$DW$141, DW_AT_const_value(0x67)
    2277                            .dwattr $C$DW$141, DW_AT_decl_file("C:/Users/Kevin/workspace_v7/collector_cc1310lp/Application
    2278                            .dwattr $C$DW$141, DW_AT_decl_line(0x258)
    2279                            .dwattr $C$DW$141, DW_AT_decl_column(0x05)
    2280                    
    2281                    $C$DW$142       .dwtag  DW_TAG_enumerator
    2282                            .dwattr $C$DW$142, DW_AT_name("ApiMac_status_fhPibNotSupported")
    2283                            .dwattr $C$DW$142, DW_AT_const_value(0x68)
    2284                            .dwattr $C$DW$142, DW_AT_decl_file("C:/Users/Kevin/workspace_v7/collector_cc1310lp/Application
    2285                            .dwattr $C$DW$142, DW_AT_decl_line(0x25a)
    2286                            .dwattr $C$DW$142, DW_AT_decl_column(0x05)
    2287                    
    2288                    $C$DW$143       .dwtag  DW_TAG_enumerator
    2289                            .dwattr $C$DW$143, DW_AT_name("ApiMac_status_fhPibReadOnly")
    2290                            .dwattr $C$DW$143, DW_AT_const_value(0x69)
    2291                            .dwattr $C$DW$143, DW_AT_decl_file("C:/Users/Kevin/workspace_v7/collector_cc1310lp/Application
    2292                            .dwattr $C$DW$143, DW_AT_decl_line(0x25c)
    2293                            .dwattr $C$DW$143, DW_AT_decl_column(0x05)
    2294                    
TI ARM Assembler PC v16.9.4 Sat Nov 25 18:51:50 2017

Tools Copyright (c) 1996-2017 Texas Instruments Incorporated
C:\Users\Kevin\AppData\Local\Temp\{DC18D6BA-4494-45CB-997B-AC060EFC778A} PAGE   43

    2295                    $C$DW$144       .dwtag  DW_TAG_enumerator
    2296                            .dwattr $C$DW$144, DW_AT_name("ApiMac_status_fhPibInvalidParameter")
    2297                            .dwattr $C$DW$144, DW_AT_const_value(0x6a)
    2298                            .dwattr $C$DW$144, DW_AT_decl_file("C:/Users/Kevin/workspace_v7/collector_cc1310lp/Application
    2299                            .dwattr $C$DW$144, DW_AT_decl_line(0x25e)
    2300                            .dwattr $C$DW$144, DW_AT_decl_column(0x05)
    2301                    
    2302                    $C$DW$145       .dwtag  DW_TAG_enumerator
    2303                            .dwattr $C$DW$145, DW_AT_name("ApiMac_status_fhInvalidFrameType")
    2304                            .dwattr $C$DW$145, DW_AT_const_value(0x6b)
    2305                            .dwattr $C$DW$145, DW_AT_decl_file("C:/Users/Kevin/workspace_v7/collector_cc1310lp/Application
    2306                            .dwattr $C$DW$145, DW_AT_decl_line(0x260)
    2307                            .dwattr $C$DW$145, DW_AT_decl_column(0x05)
    2308                    
    2309                    $C$DW$146       .dwtag  DW_TAG_enumerator
    2310                            .dwattr $C$DW$146, DW_AT_name("ApiMac_status_fhExpiredNode")
    2311                            .dwattr $C$DW$146, DW_AT_const_value(0x6c)
    2312                            .dwattr $C$DW$146, DW_AT_decl_file("C:/Users/Kevin/workspace_v7/collector_cc1310lp/Application
    2313                            .dwattr $C$DW$146, DW_AT_decl_line(0x262)
    2314                            .dwattr $C$DW$146, DW_AT_decl_column(0x05)
    2315                    
    2316                            .dwattr $C$DW$T$360, DW_AT_decl_file("C:/Users/Kevin/workspace_v7/collector_cc1310lp/Applicati
    2317                            .dwattr $C$DW$T$360, DW_AT_decl_line(0x1b5)
    2318                            .dwattr $C$DW$T$360, DW_AT_decl_column(0x01)
    2319                            .dwendtag $C$DW$T$360
    2320                    
    2321                    $C$DW$T$361     .dwtag  DW_TAG_typedef
    2322                            .dwattr $C$DW$T$361, DW_AT_name("ApiMac_status_t")
    2323                            .dwattr $C$DW$T$361, DW_AT_type(*$C$DW$T$360)
    2324                            .dwattr $C$DW$T$361, DW_AT_language(DW_LANG_C)
    2325                            .dwattr $C$DW$T$361, DW_AT_decl_file("C:/Users/Kevin/workspace_v7/collector_cc1310lp/Applicati
    2326                            .dwattr $C$DW$T$361, DW_AT_decl_line(0x263)
    2327                            .dwattr $C$DW$T$361, DW_AT_decl_column(0x03)
    2328                    
    2329                    
    2330                    $C$DW$T$364     .dwtag  DW_TAG_enumeration_type
    2331                            .dwattr $C$DW$T$364, DW_AT_byte_size(0x01)
    2332                    $C$DW$147       .dwtag  DW_TAG_enumerator
    2333                            .dwattr $C$DW$147, DW_AT_name("ApiMac_fhFrameType_panAdvert")
    2334                            .dwattr $C$DW$147, DW_AT_const_value(0x00)
    2335                            .dwattr $C$DW$147, DW_AT_decl_file("C:/Users/Kevin/workspace_v7/collector_cc1310lp/Application
    2336                            .dwattr $C$DW$147, DW_AT_decl_line(0x416)
    2337                            .dwattr $C$DW$147, DW_AT_decl_column(0x05)
    2338                    
    2339                    $C$DW$148       .dwtag  DW_TAG_enumerator
    2340                            .dwattr $C$DW$148, DW_AT_name("ApiMac_fhFrameType_panAdvertSolicit")
    2341                            .dwattr $C$DW$148, DW_AT_const_value(0x01)
    2342                            .dwattr $C$DW$148, DW_AT_decl_file("C:/Users/Kevin/workspace_v7/collector_cc1310lp/Application
    2343                            .dwattr $C$DW$148, DW_AT_decl_line(0x418)
    2344                            .dwattr $C$DW$148, DW_AT_decl_column(0x05)
    2345                    
    2346                    $C$DW$149       .dwtag  DW_TAG_enumerator
    2347                            .dwattr $C$DW$149, DW_AT_name("ApiMac_fhFrameType_config")
    2348                            .dwattr $C$DW$149, DW_AT_const_value(0x02)
    2349                            .dwattr $C$DW$149, DW_AT_decl_file("C:/Users/Kevin/workspace_v7/collector_cc1310lp/Application
TI ARM Assembler PC v16.9.4 Sat Nov 25 18:51:50 2017

Tools Copyright (c) 1996-2017 Texas Instruments Incorporated
C:\Users\Kevin\AppData\Local\Temp\{DC18D6BA-4494-45CB-997B-AC060EFC778A} PAGE   44

    2350                            .dwattr $C$DW$149, DW_AT_decl_line(0x41a)
    2351                            .dwattr $C$DW$149, DW_AT_decl_column(0x05)
    2352                    
    2353                    $C$DW$150       .dwtag  DW_TAG_enumerator
    2354                            .dwattr $C$DW$150, DW_AT_name("ApiMac_fhFrameType_configSolicit")
    2355                            .dwattr $C$DW$150, DW_AT_const_value(0x03)
    2356                            .dwattr $C$DW$150, DW_AT_decl_file("C:/Users/Kevin/workspace_v7/collector_cc1310lp/Application
    2357                            .dwattr $C$DW$150, DW_AT_decl_line(0x41c)
    2358                            .dwattr $C$DW$150, DW_AT_decl_column(0x05)
    2359                    
    2360                    $C$DW$151       .dwtag  DW_TAG_enumerator
    2361                            .dwattr $C$DW$151, DW_AT_name("ApiMac_fhFrameType_data")
    2362                            .dwattr $C$DW$151, DW_AT_const_value(0x04)
    2363                            .dwattr $C$DW$151, DW_AT_decl_file("C:/Users/Kevin/workspace_v7/collector_cc1310lp/Application
    2364                            .dwattr $C$DW$151, DW_AT_decl_line(0x41e)
    2365                            .dwattr $C$DW$151, DW_AT_decl_column(0x05)
    2366                    
    2367                    $C$DW$152       .dwtag  DW_TAG_enumerator
    2368                            .dwattr $C$DW$152, DW_AT_name("ApiMac_fhFrameType_ack")
    2369                            .dwattr $C$DW$152, DW_AT_const_value(0x05)
    2370                            .dwattr $C$DW$152, DW_AT_decl_file("C:/Users/Kevin/workspace_v7/collector_cc1310lp/Application
    2371                            .dwattr $C$DW$152, DW_AT_decl_line(0x420)
    2372                            .dwattr $C$DW$152, DW_AT_decl_column(0x05)
    2373                    
    2374                    $C$DW$153       .dwtag  DW_TAG_enumerator
    2375                            .dwattr $C$DW$153, DW_AT_name("ApiMac_fhFrameType_eapol")
    2376                            .dwattr $C$DW$153, DW_AT_const_value(0x06)
    2377                            .dwattr $C$DW$153, DW_AT_decl_file("C:/Users/Kevin/workspace_v7/collector_cc1310lp/Application
    2378                            .dwattr $C$DW$153, DW_AT_decl_line(0x422)
    2379                            .dwattr $C$DW$153, DW_AT_decl_column(0x05)
    2380                    
    2381                    $C$DW$154       .dwtag  DW_TAG_enumerator
    2382                            .dwattr $C$DW$154, DW_AT_name("ApiMac_fhFrameType_invalid")
    2383                            .dwattr $C$DW$154, DW_AT_const_value(0xff)
    2384                            .dwattr $C$DW$154, DW_AT_decl_file("C:/Users/Kevin/workspace_v7/collector_cc1310lp/Application
    2385                            .dwattr $C$DW$154, DW_AT_decl_line(0x424)
    2386                            .dwattr $C$DW$154, DW_AT_decl_column(0x05)
    2387                    
    2388                            .dwattr $C$DW$T$364, DW_AT_decl_file("C:/Users/Kevin/workspace_v7/collector_cc1310lp/Applicati
    2389                            .dwattr $C$DW$T$364, DW_AT_decl_line(0x414)
    2390                            .dwattr $C$DW$T$364, DW_AT_decl_column(0x01)
    2391                            .dwendtag $C$DW$T$364
    2392                    
    2393                    $C$DW$T$365     .dwtag  DW_TAG_typedef
    2394                            .dwattr $C$DW$T$365, DW_AT_name("ApiMac_fhFrameType_t")
    2395                            .dwattr $C$DW$T$365, DW_AT_type(*$C$DW$T$364)
    2396                            .dwattr $C$DW$T$365, DW_AT_language(DW_LANG_C)
    2397                            .dwattr $C$DW$T$365, DW_AT_decl_file("C:/Users/Kevin/workspace_v7/collector_cc1310lp/Applicati
    2398                            .dwattr $C$DW$T$365, DW_AT_decl_line(0x425)
    2399                            .dwattr $C$DW$T$365, DW_AT_decl_column(0x03)
    2400                    
    2401                    
    2402                    $C$DW$T$366     .dwtag  DW_TAG_enumeration_type
    2403                            .dwattr $C$DW$T$366, DW_AT_byte_size(0x01)
    2404                    $C$DW$155       .dwtag  DW_TAG_enumerator
TI ARM Assembler PC v16.9.4 Sat Nov 25 18:51:50 2017

Tools Copyright (c) 1996-2017 Texas Instruments Incorporated
C:\Users\Kevin\AppData\Local\Temp\{DC18D6BA-4494-45CB-997B-AC060EFC778A} PAGE   45

    2405                            .dwattr $C$DW$155, DW_AT_name("ApiMac_fhDispatchType_none")
    2406                            .dwattr $C$DW$155, DW_AT_const_value(0x00)
    2407                            .dwattr $C$DW$155, DW_AT_decl_file("C:/Users/Kevin/workspace_v7/collector_cc1310lp/Application
    2408                            .dwattr $C$DW$155, DW_AT_decl_line(0x48c)
    2409                            .dwattr $C$DW$155, DW_AT_decl_column(0x05)
    2410                    
    2411                    $C$DW$156       .dwtag  DW_TAG_enumerator
    2412                            .dwattr $C$DW$156, DW_AT_name("ApiMac_fhDispatchType_MHD_PDU")
    2413                            .dwattr $C$DW$156, DW_AT_const_value(0x01)
    2414                            .dwattr $C$DW$156, DW_AT_decl_file("C:/Users/Kevin/workspace_v7/collector_cc1310lp/Application
    2415                            .dwattr $C$DW$156, DW_AT_decl_line(0x48e)
    2416                            .dwattr $C$DW$156, DW_AT_decl_column(0x05)
    2417                    
    2418                    $C$DW$157       .dwtag  DW_TAG_enumerator
    2419                            .dwattr $C$DW$157, DW_AT_name("ApiMac_fhDispatchType_6LowPAN")
    2420                            .dwattr $C$DW$157, DW_AT_const_value(0x02)
    2421                            .dwattr $C$DW$157, DW_AT_decl_file("C:/Users/Kevin/workspace_v7/collector_cc1310lp/Application
    2422                            .dwattr $C$DW$157, DW_AT_decl_line(0x490)
    2423                            .dwattr $C$DW$157, DW_AT_decl_column(0x05)
    2424                    
    2425                            .dwattr $C$DW$T$366, DW_AT_decl_file("C:/Users/Kevin/workspace_v7/collector_cc1310lp/Applicati
    2426                            .dwattr $C$DW$T$366, DW_AT_decl_line(0x48a)
    2427                            .dwattr $C$DW$T$366, DW_AT_decl_column(0x01)
    2428                            .dwendtag $C$DW$T$366
    2429                    
    2430                    $C$DW$T$367     .dwtag  DW_TAG_typedef
    2431                            .dwattr $C$DW$T$367, DW_AT_name("ApiMac_fhDispatchType_t")
    2432                            .dwattr $C$DW$T$367, DW_AT_type(*$C$DW$T$366)
    2433                            .dwattr $C$DW$T$367, DW_AT_language(DW_LANG_C)
    2434                            .dwattr $C$DW$T$367, DW_AT_decl_file("C:/Users/Kevin/workspace_v7/collector_cc1310lp/Applicati
    2435                            .dwattr $C$DW$T$367, DW_AT_decl_line(0x491)
    2436                            .dwattr $C$DW$T$367, DW_AT_decl_column(0x03)
    2437                    
    2438                    
    2439                    $C$DW$T$373     .dwtag  DW_TAG_enumeration_type
    2440                            .dwattr $C$DW$T$373, DW_AT_byte_size(0x01)
    2441                    $C$DW$158       .dwtag  DW_TAG_enumerator
    2442                            .dwattr $C$DW$158, DW_AT_name("ApiMac_assocStatus_success")
    2443                            .dwattr $C$DW$158, DW_AT_const_value(0x00)
    2444                            .dwattr $C$DW$158, DW_AT_decl_file("C:/Users/Kevin/workspace_v7/collector_cc1310lp/Application
    2445                            .dwattr $C$DW$158, DW_AT_decl_line(0x17c)
    2446                            .dwattr $C$DW$158, DW_AT_decl_column(0x05)
    2447                    
    2448                    $C$DW$159       .dwtag  DW_TAG_enumerator
    2449                            .dwattr $C$DW$159, DW_AT_name("ApiMac_assocStatus_panAtCapacity")
    2450                            .dwattr $C$DW$159, DW_AT_const_value(0x01)
    2451                            .dwattr $C$DW$159, DW_AT_decl_file("C:/Users/Kevin/workspace_v7/collector_cc1310lp/Application
    2452                            .dwattr $C$DW$159, DW_AT_decl_line(0x17e)
    2453                            .dwattr $C$DW$159, DW_AT_decl_column(0x05)
    2454                    
    2455                    $C$DW$160       .dwtag  DW_TAG_enumerator
    2456                            .dwattr $C$DW$160, DW_AT_name("ApiMac_assocStatus_panAccessDenied")
    2457                            .dwattr $C$DW$160, DW_AT_const_value(0x02)
    2458                            .dwattr $C$DW$160, DW_AT_decl_file("C:/Users/Kevin/workspace_v7/collector_cc1310lp/Application
    2459                            .dwattr $C$DW$160, DW_AT_decl_line(0x180)
TI ARM Assembler PC v16.9.4 Sat Nov 25 18:51:50 2017

Tools Copyright (c) 1996-2017 Texas Instruments Incorporated
C:\Users\Kevin\AppData\Local\Temp\{DC18D6BA-4494-45CB-997B-AC060EFC778A} PAGE   46

    2460                            .dwattr $C$DW$160, DW_AT_decl_column(0x05)
    2461                    
    2462                            .dwattr $C$DW$T$373, DW_AT_decl_file("C:/Users/Kevin/workspace_v7/collector_cc1310lp/Applicati
    2463                            .dwattr $C$DW$T$373, DW_AT_decl_line(0x17a)
    2464                            .dwattr $C$DW$T$373, DW_AT_decl_column(0x01)
    2465                            .dwendtag $C$DW$T$373
    2466                    
    2467                    $C$DW$T$374     .dwtag  DW_TAG_typedef
    2468                            .dwattr $C$DW$T$374, DW_AT_name("ApiMac_assocStatus_t")
    2469                            .dwattr $C$DW$T$374, DW_AT_type(*$C$DW$T$373)
    2470                            .dwattr $C$DW$T$374, DW_AT_language(DW_LANG_C)
    2471                            .dwattr $C$DW$T$374, DW_AT_decl_file("C:/Users/Kevin/workspace_v7/collector_cc1310lp/Applicati
    2472                            .dwattr $C$DW$T$374, DW_AT_decl_line(0x181)
    2473                            .dwattr $C$DW$T$374, DW_AT_decl_column(0x03)
    2474                    
    2475                    
    2476                    $C$DW$T$378     .dwtag  DW_TAG_enumeration_type
    2477                            .dwattr $C$DW$T$378, DW_AT_byte_size(0x01)
    2478                    $C$DW$161       .dwtag  DW_TAG_enumerator
    2479                            .dwattr $C$DW$161, DW_AT_name("ApiMac_commStatusReason_assocRsp")
    2480                            .dwattr $C$DW$161, DW_AT_const_value(0x00)
    2481                            .dwattr $C$DW$161, DW_AT_decl_file("C:/Users/Kevin/workspace_v7/collector_cc1310lp/Application
    2482                            .dwattr $C$DW$161, DW_AT_decl_line(0x1a8)
    2483                            .dwattr $C$DW$161, DW_AT_decl_column(0x05)
    2484                    
    2485                    $C$DW$162       .dwtag  DW_TAG_enumerator
    2486                            .dwattr $C$DW$162, DW_AT_name("ApiMac_commStatusReason_orphanRsp")
    2487                            .dwattr $C$DW$162, DW_AT_const_value(0x01)
    2488                            .dwattr $C$DW$162, DW_AT_decl_file("C:/Users/Kevin/workspace_v7/collector_cc1310lp/Application
    2489                            .dwattr $C$DW$162, DW_AT_decl_line(0x1ac)
    2490                            .dwattr $C$DW$162, DW_AT_decl_column(0x05)
    2491                    
    2492                    $C$DW$163       .dwtag  DW_TAG_enumerator
    2493                            .dwattr $C$DW$163, DW_AT_name("ApiMac_commStatusReason_rxSecure")
    2494                            .dwattr $C$DW$163, DW_AT_const_value(0x02)
    2495                            .dwattr $C$DW$163, DW_AT_decl_file("C:/Users/Kevin/workspace_v7/collector_cc1310lp/Application
    2496                            .dwattr $C$DW$163, DW_AT_decl_line(0x1b0)
    2497                            .dwattr $C$DW$163, DW_AT_decl_column(0x05)
    2498                    
    2499                            .dwattr $C$DW$T$378, DW_AT_decl_file("C:/Users/Kevin/workspace_v7/collector_cc1310lp/Applicati
    2500                            .dwattr $C$DW$T$378, DW_AT_decl_line(0x1a4)
    2501                            .dwattr $C$DW$T$378, DW_AT_decl_column(0x01)
    2502                            .dwendtag $C$DW$T$378
    2503                    
    2504                    $C$DW$T$379     .dwtag  DW_TAG_typedef
    2505                            .dwattr $C$DW$T$379, DW_AT_name("ApiMac_commStatusReason_t")
    2506                            .dwattr $C$DW$T$379, DW_AT_type(*$C$DW$T$378)
    2507                            .dwattr $C$DW$T$379, DW_AT_language(DW_LANG_C)
    2508                            .dwattr $C$DW$T$379, DW_AT_decl_file("C:/Users/Kevin/workspace_v7/collector_cc1310lp/Applicati
    2509                            .dwattr $C$DW$T$379, DW_AT_decl_line(0x1b1)
    2510                            .dwattr $C$DW$T$379, DW_AT_decl_column(0x03)
    2511                    
    2512                    
    2513                    $C$DW$T$382     .dwtag  DW_TAG_enumeration_type
    2514                            .dwattr $C$DW$T$382, DW_AT_byte_size(0x01)
TI ARM Assembler PC v16.9.4 Sat Nov 25 18:51:50 2017

Tools Copyright (c) 1996-2017 Texas Instruments Incorporated
C:\Users\Kevin\AppData\Local\Temp\{DC18D6BA-4494-45CB-997B-AC060EFC778A} PAGE   47

    2515                    $C$DW$164       .dwtag  DW_TAG_enumerator
    2516                            .dwattr $C$DW$164, DW_AT_name("ApiMac_disassocateReason_coord")
    2517                            .dwattr $C$DW$164, DW_AT_const_value(0x01)
    2518                            .dwattr $C$DW$164, DW_AT_decl_file("C:/Users/Kevin/workspace_v7/collector_cc1310lp/Application
    2519                            .dwattr $C$DW$164, DW_AT_decl_line(0x19d)
    2520                            .dwattr $C$DW$164, DW_AT_decl_column(0x05)
    2521                    
    2522                    $C$DW$165       .dwtag  DW_TAG_enumerator
    2523                            .dwattr $C$DW$165, DW_AT_name("ApiMac_disassocateReason_device")
    2524                            .dwattr $C$DW$165, DW_AT_const_value(0x02)
    2525                            .dwattr $C$DW$165, DW_AT_decl_file("C:/Users/Kevin/workspace_v7/collector_cc1310lp/Application
    2526                            .dwattr $C$DW$165, DW_AT_decl_line(0x19f)
    2527                            .dwattr $C$DW$165, DW_AT_decl_column(0x05)
    2528                    
    2529                            .dwattr $C$DW$T$382, DW_AT_decl_file("C:/Users/Kevin/workspace_v7/collector_cc1310lp/Applicati
    2530                            .dwattr $C$DW$T$382, DW_AT_decl_line(0x19b)
    2531                            .dwattr $C$DW$T$382, DW_AT_decl_column(0x01)
    2532                            .dwendtag $C$DW$T$382
    2533                    
    2534                    $C$DW$T$383     .dwtag  DW_TAG_typedef
    2535                            .dwattr $C$DW$T$383, DW_AT_name("ApiMac_disassocateReason_t")
    2536                            .dwattr $C$DW$T$383, DW_AT_type(*$C$DW$T$382)
    2537                            .dwattr $C$DW$T$383, DW_AT_language(DW_LANG_C)
    2538                            .dwattr $C$DW$T$383, DW_AT_decl_file("C:/Users/Kevin/workspace_v7/collector_cc1310lp/Applicati
    2539                            .dwattr $C$DW$T$383, DW_AT_decl_line(0x1a0)
    2540                            .dwattr $C$DW$T$383, DW_AT_decl_column(0x03)
    2541                    
    2542                    
    2543                    $C$DW$T$391     .dwtag  DW_TAG_enumeration_type
    2544                            .dwattr $C$DW$T$391, DW_AT_byte_size(0x01)
    2545                    $C$DW$166       .dwtag  DW_TAG_enumerator
    2546                            .dwattr $C$DW$166, DW_AT_name("ApiMac_scantype_energyDetect")
    2547                            .dwattr $C$DW$166, DW_AT_const_value(0x00)
    2548                            .dwattr $C$DW$166, DW_AT_decl_file("C:/Users/Kevin/workspace_v7/collector_cc1310lp/Application
    2549                            .dwattr $C$DW$166, DW_AT_decl_line(0x458)
    2550                            .dwattr $C$DW$166, DW_AT_decl_column(0x05)
    2551                    
    2552                    $C$DW$167       .dwtag  DW_TAG_enumerator
    2553                            .dwattr $C$DW$167, DW_AT_name("ApiMac_scantype_active")
    2554                            .dwattr $C$DW$167, DW_AT_const_value(0x01)
    2555                            .dwattr $C$DW$167, DW_AT_decl_file("C:/Users/Kevin/workspace_v7/collector_cc1310lp/Application
    2556                            .dwattr $C$DW$167, DW_AT_decl_line(0x45e)
    2557                            .dwattr $C$DW$167, DW_AT_decl_column(0x05)
    2558                    
    2559                    $C$DW$168       .dwtag  DW_TAG_enumerator
    2560                            .dwattr $C$DW$168, DW_AT_name("ApiMac_scantype_passive")
    2561                            .dwattr $C$DW$168, DW_AT_const_value(0x02)
    2562                            .dwattr $C$DW$168, DW_AT_decl_file("C:/Users/Kevin/workspace_v7/collector_cc1310lp/Application
    2563                            .dwattr $C$DW$168, DW_AT_decl_line(0x463)
    2564                            .dwattr $C$DW$168, DW_AT_decl_column(0x05)
    2565                    
    2566                    $C$DW$169       .dwtag  DW_TAG_enumerator
    2567                            .dwattr $C$DW$169, DW_AT_name("ApiMac_scantype_orphan")
    2568                            .dwattr $C$DW$169, DW_AT_const_value(0x03)
    2569                            .dwattr $C$DW$169, DW_AT_decl_file("C:/Users/Kevin/workspace_v7/collector_cc1310lp/Application
TI ARM Assembler PC v16.9.4 Sat Nov 25 18:51:50 2017

Tools Copyright (c) 1996-2017 Texas Instruments Incorporated
C:\Users\Kevin\AppData\Local\Temp\{DC18D6BA-4494-45CB-997B-AC060EFC778A} PAGE   48

    2570                            .dwattr $C$DW$169, DW_AT_decl_line(0x469)
    2571                            .dwattr $C$DW$169, DW_AT_decl_column(0x05)
    2572                    
    2573                    $C$DW$170       .dwtag  DW_TAG_enumerator
    2574                            .dwattr $C$DW$170, DW_AT_name("ApiMac_scantype_activeEnhanced")
    2575                            .dwattr $C$DW$170, DW_AT_const_value(0x05)
    2576                            .dwattr $C$DW$170, DW_AT_decl_file("C:/Users/Kevin/workspace_v7/collector_cc1310lp/Application
    2577                            .dwattr $C$DW$170, DW_AT_decl_line(0x46f)
    2578                            .dwattr $C$DW$170, DW_AT_decl_column(0x05)
    2579                    
    2580                            .dwattr $C$DW$T$391, DW_AT_decl_file("C:/Users/Kevin/workspace_v7/collector_cc1310lp/Applicati
    2581                            .dwattr $C$DW$T$391, DW_AT_decl_line(0x452)
    2582                            .dwattr $C$DW$T$391, DW_AT_decl_column(0x01)
    2583                            .dwendtag $C$DW$T$391
    2584                    
    2585                    $C$DW$T$392     .dwtag  DW_TAG_typedef
    2586                            .dwattr $C$DW$T$392, DW_AT_name("ApiMac_scantype_t")
    2587                            .dwattr $C$DW$T$392, DW_AT_type(*$C$DW$T$391)
    2588                            .dwattr $C$DW$T$392, DW_AT_language(DW_LANG_C)
    2589                            .dwattr $C$DW$T$392, DW_AT_decl_file("C:/Users/Kevin/workspace_v7/collector_cc1310lp/Applicati
    2590                            .dwattr $C$DW$T$392, DW_AT_decl_line(0x470)
    2591                            .dwattr $C$DW$T$392, DW_AT_decl_column(0x03)
    2592                    
    2593                    
    2594                    $C$DW$T$402     .dwtag  DW_TAG_enumeration_type
    2595                            .dwattr $C$DW$T$402, DW_AT_byte_size(0x01)
    2596                    $C$DW$171       .dwtag  DW_TAG_enumerator
    2597                            .dwattr $C$DW$171, DW_AT_name("ApiMac_wisunAsycnOperation_start")
    2598                            .dwattr $C$DW$171, DW_AT_const_value(0x00)
    2599                            .dwattr $C$DW$171, DW_AT_decl_file("C:/Users/Kevin/workspace_v7/collector_cc1310lp/Application
    2600                            .dwattr $C$DW$171, DW_AT_decl_line(0x476)
    2601                            .dwattr $C$DW$171, DW_AT_decl_column(0x05)
    2602                    
    2603                    $C$DW$172       .dwtag  DW_TAG_enumerator
    2604                            .dwattr $C$DW$172, DW_AT_name("ApiMac_wisunAsycnOperation_stop")
    2605                            .dwattr $C$DW$172, DW_AT_const_value(0x01)
    2606                            .dwattr $C$DW$172, DW_AT_decl_file("C:/Users/Kevin/workspace_v7/collector_cc1310lp/Application
    2607                            .dwattr $C$DW$172, DW_AT_decl_line(0x478)
    2608                            .dwattr $C$DW$172, DW_AT_decl_column(0x05)
    2609                    
    2610                            .dwattr $C$DW$T$402, DW_AT_decl_file("C:/Users/Kevin/workspace_v7/collector_cc1310lp/Applicati
    2611                            .dwattr $C$DW$T$402, DW_AT_decl_line(0x474)
    2612                            .dwattr $C$DW$T$402, DW_AT_decl_column(0x01)
    2613                            .dwendtag $C$DW$T$402
    2614                    
    2615                    $C$DW$T$403     .dwtag  DW_TAG_typedef
    2616                            .dwattr $C$DW$T$403, DW_AT_name("ApiMac_wisunAsycnOperation_t")
    2617                            .dwattr $C$DW$T$403, DW_AT_type(*$C$DW$T$402)
    2618                            .dwattr $C$DW$T$403, DW_AT_language(DW_LANG_C)
    2619                            .dwattr $C$DW$T$403, DW_AT_decl_file("C:/Users/Kevin/workspace_v7/collector_cc1310lp/Applicati
    2620                            .dwattr $C$DW$T$403, DW_AT_decl_line(0x479)
    2621                            .dwattr $C$DW$T$403, DW_AT_decl_column(0x03)
    2622                    
    2623                    
    2624                    $C$DW$T$404     .dwtag  DW_TAG_enumeration_type
TI ARM Assembler PC v16.9.4 Sat Nov 25 18:51:50 2017

Tools Copyright (c) 1996-2017 Texas Instruments Incorporated
C:\Users\Kevin\AppData\Local\Temp\{DC18D6BA-4494-45CB-997B-AC060EFC778A} PAGE   49

    2625                            .dwattr $C$DW$T$404, DW_AT_byte_size(0x01)
    2626                    $C$DW$173       .dwtag  DW_TAG_enumerator
    2627                            .dwattr $C$DW$173, DW_AT_name("ApiMac_wisunAsyncFrame_advertisement")
    2628                            .dwattr $C$DW$173, DW_AT_const_value(0x00)
    2629                            .dwattr $C$DW$173, DW_AT_decl_file("C:/Users/Kevin/workspace_v7/collector_cc1310lp/Application
    2630                            .dwattr $C$DW$173, DW_AT_decl_line(0x47f)
    2631                            .dwattr $C$DW$173, DW_AT_decl_column(0x05)
    2632                    
    2633                    $C$DW$174       .dwtag  DW_TAG_enumerator
    2634                            .dwattr $C$DW$174, DW_AT_name("ApiMac_wisunAsyncFrame_advertisementSolicit")
    2635                            .dwattr $C$DW$174, DW_AT_const_value(0x01)
    2636                            .dwattr $C$DW$174, DW_AT_decl_file("C:/Users/Kevin/workspace_v7/collector_cc1310lp/Application
    2637                            .dwattr $C$DW$174, DW_AT_decl_line(0x481)
    2638                            .dwattr $C$DW$174, DW_AT_decl_column(0x05)
    2639                    
    2640                    $C$DW$175       .dwtag  DW_TAG_enumerator
    2641                            .dwattr $C$DW$175, DW_AT_name("ApiMac_wisunAsyncFrame_config")
    2642                            .dwattr $C$DW$175, DW_AT_const_value(0x02)
    2643                            .dwattr $C$DW$175, DW_AT_decl_file("C:/Users/Kevin/workspace_v7/collector_cc1310lp/Application
    2644                            .dwattr $C$DW$175, DW_AT_decl_line(0x483)
    2645                            .dwattr $C$DW$175, DW_AT_decl_column(0x05)
    2646                    
    2647                    $C$DW$176       .dwtag  DW_TAG_enumerator
    2648                            .dwattr $C$DW$176, DW_AT_name("ApiMac_wisunAsyncFrame_configSolicit")
    2649                            .dwattr $C$DW$176, DW_AT_const_value(0x03)
    2650                            .dwattr $C$DW$176, DW_AT_decl_file("C:/Users/Kevin/workspace_v7/collector_cc1310lp/Application
    2651                            .dwattr $C$DW$176, DW_AT_decl_line(0x485)
    2652                            .dwattr $C$DW$176, DW_AT_decl_column(0x05)
    2653                    
    2654                            .dwattr $C$DW$T$404, DW_AT_decl_file("C:/Users/Kevin/workspace_v7/collector_cc1310lp/Applicati
    2655                            .dwattr $C$DW$T$404, DW_AT_decl_line(0x47d)
    2656                            .dwattr $C$DW$T$404, DW_AT_decl_column(0x01)
    2657                            .dwendtag $C$DW$T$404
    2658                    
    2659                    $C$DW$T$405     .dwtag  DW_TAG_typedef
    2660                            .dwattr $C$DW$T$405, DW_AT_name("ApiMac_wisunAsyncFrame_t")
    2661                            .dwattr $C$DW$T$405, DW_AT_type(*$C$DW$T$404)
    2662                            .dwattr $C$DW$T$405, DW_AT_language(DW_LANG_C)
    2663                            .dwattr $C$DW$T$405, DW_AT_decl_file("C:/Users/Kevin/workspace_v7/collector_cc1310lp/Applicati
    2664                            .dwattr $C$DW$T$405, DW_AT_decl_line(0x486)
    2665                            .dwattr $C$DW$T$405, DW_AT_decl_column(0x03)
    2666                    
    2667                    
    2668                    $C$DW$T$516     .dwtag  DW_TAG_enumeration_type
    2669                            .dwattr $C$DW$T$516, DW_AT_byte_size(0x01)
    2670                    $C$DW$177       .dwtag  DW_TAG_enumerator
    2671                            .dwattr $C$DW$177, DW_AT_name("FAPI_PROGRAM_DATA")
    2672                            .dwattr $C$DW$177, DW_AT_const_value(0x02)
    2673                            .dwattr $C$DW$177, DW_AT_decl_file("C:/ti/simplelink_cc13x0_sdk_1_50_00_08/source/ti/devices/c
    2674                            .dwattr $C$DW$177, DW_AT_decl_line(0xa6)
    2675                            .dwattr $C$DW$177, DW_AT_decl_column(0x05)
    2676                    
    2677                    $C$DW$178       .dwtag  DW_TAG_enumerator
    2678                            .dwattr $C$DW$178, DW_AT_name("FAPI_ERASE_SECTOR")
    2679                            .dwattr $C$DW$178, DW_AT_const_value(0x06)
TI ARM Assembler PC v16.9.4 Sat Nov 25 18:51:50 2017

Tools Copyright (c) 1996-2017 Texas Instruments Incorporated
C:\Users\Kevin\AppData\Local\Temp\{DC18D6BA-4494-45CB-997B-AC060EFC778A} PAGE   50

    2680                            .dwattr $C$DW$178, DW_AT_decl_file("C:/ti/simplelink_cc13x0_sdk_1_50_00_08/source/ti/devices/c
    2681                            .dwattr $C$DW$178, DW_AT_decl_line(0xa7)
    2682                            .dwattr $C$DW$178, DW_AT_decl_column(0x05)
    2683                    
    2684                    $C$DW$179       .dwtag  DW_TAG_enumerator
    2685                            .dwattr $C$DW$179, DW_AT_name("FAPI_ERASE_BANK")
    2686                            .dwattr $C$DW$179, DW_AT_const_value(0x08)
    2687                            .dwattr $C$DW$179, DW_AT_decl_file("C:/ti/simplelink_cc13x0_sdk_1_50_00_08/source/ti/devices/c
    2688                            .dwattr $C$DW$179, DW_AT_decl_line(0xa8)
    2689                            .dwattr $C$DW$179, DW_AT_decl_column(0x05)
    2690                    
    2691                    $C$DW$180       .dwtag  DW_TAG_enumerator
    2692                            .dwattr $C$DW$180, DW_AT_name("FAPI_VALIDATE_SECTOR")
    2693                            .dwattr $C$DW$180, DW_AT_const_value(0x0e)
    2694                            .dwattr $C$DW$180, DW_AT_decl_file("C:/ti/simplelink_cc13x0_sdk_1_50_00_08/source/ti/devices/c
    2695                            .dwattr $C$DW$180, DW_AT_decl_line(0xa9)
    2696                            .dwattr $C$DW$180, DW_AT_decl_column(0x05)
    2697                    
    2698                    $C$DW$181       .dwtag  DW_TAG_enumerator
    2699                            .dwattr $C$DW$181, DW_AT_name("FAPI_CLEAR_STATUS")
    2700                            .dwattr $C$DW$181, DW_AT_const_value(0x10)
    2701                            .dwattr $C$DW$181, DW_AT_decl_file("C:/ti/simplelink_cc13x0_sdk_1_50_00_08/source/ti/devices/c
    2702                            .dwattr $C$DW$181, DW_AT_decl_line(0xaa)
    2703                            .dwattr $C$DW$181, DW_AT_decl_column(0x05)
    2704                    
    2705                    $C$DW$182       .dwtag  DW_TAG_enumerator
    2706                            .dwattr $C$DW$182, DW_AT_name("FAPI_PROGRAM_RESUME")
    2707                            .dwattr $C$DW$182, DW_AT_const_value(0x14)
    2708                            .dwattr $C$DW$182, DW_AT_decl_file("C:/ti/simplelink_cc13x0_sdk_1_50_00_08/source/ti/devices/c
    2709                            .dwattr $C$DW$182, DW_AT_decl_line(0xab)
    2710                            .dwattr $C$DW$182, DW_AT_decl_column(0x05)
    2711                    
    2712                    $C$DW$183       .dwtag  DW_TAG_enumerator
    2713                            .dwattr $C$DW$183, DW_AT_name("FAPI_ERASE_RESUME")
    2714                            .dwattr $C$DW$183, DW_AT_const_value(0x16)
    2715                            .dwattr $C$DW$183, DW_AT_decl_file("C:/ti/simplelink_cc13x0_sdk_1_50_00_08/source/ti/devices/c
    2716                            .dwattr $C$DW$183, DW_AT_decl_line(0xac)
    2717                            .dwattr $C$DW$183, DW_AT_decl_column(0x05)
    2718                    
    2719                    $C$DW$184       .dwtag  DW_TAG_enumerator
    2720                            .dwattr $C$DW$184, DW_AT_name("FAPI_CLEAR_MORE")
    2721                            .dwattr $C$DW$184, DW_AT_const_value(0x18)
    2722                            .dwattr $C$DW$184, DW_AT_decl_file("C:/ti/simplelink_cc13x0_sdk_1_50_00_08/source/ti/devices/c
    2723                            .dwattr $C$DW$184, DW_AT_decl_line(0xad)
    2724                            .dwattr $C$DW$184, DW_AT_decl_column(0x05)
    2725                    
    2726                    $C$DW$185       .dwtag  DW_TAG_enumerator
    2727                            .dwattr $C$DW$185, DW_AT_name("FAPI_PROGRAM_SECTOR")
    2728                            .dwattr $C$DW$185, DW_AT_const_value(0x20)
    2729                            .dwattr $C$DW$185, DW_AT_decl_file("C:/ti/simplelink_cc13x0_sdk_1_50_00_08/source/ti/devices/c
    2730                            .dwattr $C$DW$185, DW_AT_decl_line(0xae)
    2731                            .dwattr $C$DW$185, DW_AT_decl_column(0x05)
    2732                    
    2733                    $C$DW$186       .dwtag  DW_TAG_enumerator
    2734                            .dwattr $C$DW$186, DW_AT_name("FAPI_ERASE_OTP")
TI ARM Assembler PC v16.9.4 Sat Nov 25 18:51:50 2017

Tools Copyright (c) 1996-2017 Texas Instruments Incorporated
C:\Users\Kevin\AppData\Local\Temp\{DC18D6BA-4494-45CB-997B-AC060EFC778A} PAGE   51

    2735                            .dwattr $C$DW$186, DW_AT_const_value(0x30)
    2736                            .dwattr $C$DW$186, DW_AT_decl_file("C:/ti/simplelink_cc13x0_sdk_1_50_00_08/source/ti/devices/c
    2737                            .dwattr $C$DW$186, DW_AT_decl_line(0xaf)
    2738                            .dwattr $C$DW$186, DW_AT_decl_column(0x05)
    2739                    
    2740                            .dwattr $C$DW$T$516, DW_AT_decl_file("C:/ti/simplelink_cc13x0_sdk_1_50_00_08/source/ti/devices
    2741                            .dwattr $C$DW$T$516, DW_AT_decl_line(0xa5)
    2742                            .dwattr $C$DW$T$516, DW_AT_decl_column(0x01)
    2743                            .dwendtag $C$DW$T$516
    2744                    
    2745                    $C$DW$T$517     .dwtag  DW_TAG_typedef
    2746                            .dwattr $C$DW$T$517, DW_AT_name("tFlashStateCommandsType")
    2747                            .dwattr $C$DW$T$517, DW_AT_type(*$C$DW$T$516)
    2748                            .dwattr $C$DW$T$517, DW_AT_language(DW_LANG_C)
    2749                            .dwattr $C$DW$T$517, DW_AT_decl_file("C:/ti/simplelink_cc13x0_sdk_1_50_00_08/source/ti/devices
    2750                            .dwattr $C$DW$T$517, DW_AT_decl_line(0xb0)
    2751                            .dwattr $C$DW$T$517, DW_AT_decl_column(0x03)
    2752                    
    2753                    
    2754                    $C$DW$T$518     .dwtag  DW_TAG_enumeration_type
    2755                            .dwattr $C$DW$T$518, DW_AT_byte_size(0x01)
    2756                    $C$DW$187       .dwtag  DW_TAG_enumerator
    2757                            .dwattr $C$DW$187, DW_AT_name("ICALL_RTI_APP_CMD_EVENT")
    2758                            .dwattr $C$DW$187, DW_AT_const_value(0xe0)
    2759                            .dwattr $C$DW$187, DW_AT_decl_file("C:/ti/simplelink_cc13x0_sdk_1_50_00_08/source/ti/ti154stac
    2760                            .dwattr $C$DW$187, DW_AT_decl_line(0x3de)
    2761                            .dwattr $C$DW$187, DW_AT_decl_column(0x04)
    2762                    
    2763                    $C$DW$188       .dwtag  DW_TAG_enumerator
    2764                            .dwattr $C$DW$188, DW_AT_name("ICALL_RTI_STACK_CMD_EVENT")
    2765                            .dwattr $C$DW$188, DW_AT_const_value(0xe1)
    2766                            .dwattr $C$DW$188, DW_AT_decl_file("C:/ti/simplelink_cc13x0_sdk_1_50_00_08/source/ti/ti154stac
    2767                            .dwattr $C$DW$188, DW_AT_decl_line(0x3e0)
    2768                            .dwattr $C$DW$188, DW_AT_decl_column(0x04)
    2769                    
    2770                    $C$DW$189       .dwtag  DW_TAG_enumerator
    2771                            .dwattr $C$DW$189, DW_AT_name("ICALL_RTI_APP_ASYNC_CMD_EVENT")
    2772                            .dwattr $C$DW$189, DW_AT_const_value(0xe2)
    2773                            .dwattr $C$DW$189, DW_AT_decl_file("C:/ti/simplelink_cc13x0_sdk_1_50_00_08/source/ti/ti154stac
    2774                            .dwattr $C$DW$189, DW_AT_decl_line(0x3e2)
    2775                            .dwattr $C$DW$189, DW_AT_decl_column(0x04)
    2776                    
    2777                    $C$DW$190       .dwtag  DW_TAG_enumerator
    2778                            .dwattr $C$DW$190, DW_AT_name("ICALL_RTI_APP_SYNC_CMD_EVENT")
    2779                            .dwattr $C$DW$190, DW_AT_const_value(0xe3)
    2780                            .dwattr $C$DW$190, DW_AT_decl_file("C:/ti/simplelink_cc13x0_sdk_1_50_00_08/source/ti/ti154stac
    2781                            .dwattr $C$DW$190, DW_AT_decl_line(0x3e4)
    2782                            .dwattr $C$DW$190, DW_AT_decl_column(0x04)
    2783                    
    2784                    $C$DW$191       .dwtag  DW_TAG_enumerator
    2785                            .dwattr $C$DW$191, DW_AT_name("ICALL_RCN_APP_ASYNC_CMD_EVENT")
    2786                            .dwattr $C$DW$191, DW_AT_const_value(0xe4)
    2787                            .dwattr $C$DW$191, DW_AT_decl_file("C:/ti/simplelink_cc13x0_sdk_1_50_00_08/source/ti/ti154stac
    2788                            .dwattr $C$DW$191, DW_AT_decl_line(0x3e6)
    2789                            .dwattr $C$DW$191, DW_AT_decl_column(0x04)
TI ARM Assembler PC v16.9.4 Sat Nov 25 18:51:50 2017

Tools Copyright (c) 1996-2017 Texas Instruments Incorporated
C:\Users\Kevin\AppData\Local\Temp\{DC18D6BA-4494-45CB-997B-AC060EFC778A} PAGE   52

    2790                    
    2791                    $C$DW$192       .dwtag  DW_TAG_enumerator
    2792                            .dwattr $C$DW$192, DW_AT_name("ICALL_RCN_APP_SYNC_CMD_EVENT")
    2793                            .dwattr $C$DW$192, DW_AT_const_value(0xe5)
    2794                            .dwattr $C$DW$192, DW_AT_decl_file("C:/ti/simplelink_cc13x0_sdk_1_50_00_08/source/ti/ti154stac
    2795                            .dwattr $C$DW$192, DW_AT_decl_line(0x3e8)
    2796                            .dwattr $C$DW$192, DW_AT_decl_column(0x04)
    2797                    
    2798                            .dwattr $C$DW$T$518, DW_AT_decl_file("C:/ti/simplelink_cc13x0_sdk_1_50_00_08/source/ti/ti154st
    2799                            .dwattr $C$DW$T$518, DW_AT_decl_line(0x3dc)
    2800                            .dwattr $C$DW$T$518, DW_AT_decl_column(0x01)
    2801                            .dwendtag $C$DW$T$518
    2802                    
    2803                    $C$DW$T$519     .dwtag  DW_TAG_typedef
    2804                            .dwattr $C$DW$T$519, DW_AT_name("ICall_RemotiCmdEvent_t")
    2805                            .dwattr $C$DW$T$519, DW_AT_type(*$C$DW$T$518)
    2806                            .dwattr $C$DW$T$519, DW_AT_language(DW_LANG_C)
    2807                            .dwattr $C$DW$T$519, DW_AT_decl_file("C:/ti/simplelink_cc13x0_sdk_1_50_00_08/source/ti/ti154st
    2808                            .dwattr $C$DW$T$519, DW_AT_decl_line(0x3e9)
    2809                            .dwattr $C$DW$T$519, DW_AT_decl_column(0x02)
    2810                    
    2811                    
    2812                    $C$DW$T$520     .dwtag  DW_TAG_enumeration_type
    2813                            .dwattr $C$DW$T$520, DW_AT_byte_size(0x01)
    2814                    $C$DW$193       .dwtag  DW_TAG_enumerator
    2815                            .dwattr $C$DW$193, DW_AT_name("ApiMac_secLevel_none")
    2816                            .dwattr $C$DW$193, DW_AT_const_value(0x00)
    2817                            .dwattr $C$DW$193, DW_AT_decl_file("C:/Users/Kevin/workspace_v7/collector_cc1310lp/Application
    2818                            .dwattr $C$DW$193, DW_AT_decl_line(0x269)
    2819                            .dwattr $C$DW$193, DW_AT_decl_column(0x05)
    2820                    
    2821                    $C$DW$194       .dwtag  DW_TAG_enumerator
    2822                            .dwattr $C$DW$194, DW_AT_name("ApiMac_secLevel_mic32")
    2823                            .dwattr $C$DW$194, DW_AT_const_value(0x01)
    2824                            .dwattr $C$DW$194, DW_AT_decl_file("C:/Users/Kevin/workspace_v7/collector_cc1310lp/Application
    2825                            .dwattr $C$DW$194, DW_AT_decl_line(0x26b)
    2826                            .dwattr $C$DW$194, DW_AT_decl_column(0x05)
    2827                    
    2828                    $C$DW$195       .dwtag  DW_TAG_enumerator
    2829                            .dwattr $C$DW$195, DW_AT_name("ApiMac_secLevel_mic64")
